 bff05000:		(580)	TEXT	main+0(SB),$-8
 bff05000: 10057073	(584)	CSRRCI	CSR(0x100),R10,R0
 bff05004: 00001197 92c18193(585)	MOV	$setSB+0(SB),R3
 bff0500c: 0703ca83	(586)	MOVBU	112(R7),R21
 bff05010: 000a8463	(588)	BEQ	R0,R21,superboot+bff05018(BRANCH)
 bff05014: 30047073	(589)	CSRRCI	CSR(0x300),R8,R0
 bff05018: 20100cb7	(591)	MOV	$537919488,R25
 bff0501c: 8081b903	(592)	MOV	$3fffffffff+0(SB),R18
 bff05020: 8101b983	(593)	MOV	$ffffffff+0(SB),R19
 bff05024: 01247a33	(596)	AND	R18,R8,R20
 bff05028: 01217133	(598)	AND	R18,R2
 bff0502c:		(598)	TEXT	rbalign+0(SB),R1,$-8
 bff0502c: 0123f3b3	(600)	AND	R18,R7
 bff05030: 4481    	(605)	MOV	R0,R9
 bff05032: 0ff0000f	(606)	WORD	,$267386895
 bff05036: 0000100f	(606)	WORD	,$4111
 bff0503a: 12000073	(606)	WORD	,$301990003
 bff0503e: 18049073	(606)	CSRRW	CSR(0x180),R9,R0
 bff05042: 12000073	(606)	WORD	,$301990003
 bff05046: 0ff0000f	(606)	WORD	,$267386895
 bff0504a: 0000100f	(606)	WORD	,$4111
 bff0504e: 00001197 8e218193(607)	MOV	$setSB+0(SB),R3
 bff05056: 0121f1b3	(609)	AND	R18,R3
 bff0505a: 8001b023	(611)	MOV	R0,newkern+0(SB)
 bff0505e: 00000e97 0bae8e93(613)	MOV	$strap+0(SB),R29
 bff05066: 105e9073	(614)	CSRRW	CSR(0x105),R29,R0
 bff0506a: 141e9073	(615)	CSRRW	CSR(0x141),R29,R0
 bff0506e: 0003af03	(617)	MOVW	0(R7),R30
 bff05072: 008a3483	(621)	MOV	8(R20),R9
 bff05076: 0134f4b3	(623)	AND	R19,R9
 bff0507a: 88a6    	(623)	MOV	R9,R17
 bff0507c: 010a3503	(625)	MOV	16(R20),R10
 bff05080: 01257533	(627)	AND	R18,R10
 bff05084: 018a3583	(627)	MOV	24(R20),R11
 bff05088: 06c3ef83	(630)	MOVWU	108(R7),R31
 bff0508c: 060f1663	(633)	BNE	R0,R30,secondary+bff050f8(BRANCH)
 bff05090: 4691    	(641)	MOV	$4,R13
 bff05092: 04a4eb63	(643)	BLTU	R10,R9,forw+bff050e8(BRANCH)
 bff05096: 00a58733	(643)	ADD	R10,R11,R14
 bff0509a: 04e4f763	(645)	BGEU	R14,R9,forw+bff050e8(BRANCH)
 bff0509e: 94ae    	(647)	ADD	R11,R9
 bff050a0: 952e    	(648)	ADD	R11,R10
 bff050a2: 8c95    	(649)	SUB	R13,R9
 bff050a4: 8d15    	(650)	SUB	R13,R10
 bff050a6: 4118    	(651)	MOVW	0(R10),R14
 bff050a8: c098    	(652)	MOVW	R14,0(R9)
 bff050aa: 8d15    	(654)	SUB	R13,R10
 bff050ac: 8c95    	(655)	SUB	R13,R9
 bff050ae: 8d95    	(656)	SUB	R13,R11
 bff050b0: feb04be3	(657)	BLT	R11,R0,back+bff050a6(BRANCH)
 bff050b4: 0ff0000f	(667)	WORD	,$267386895
 bff050b8: 0000100f	(668)	WORD	,$4111
 bff050bc: 0000fbb7 ccfb8b93(669)	MOV	$60623,R23
 bff050c4: 8171b023	(670)	MOV	R23,newkern+0(SB)
 bff050c8: 0ff0000f	(694)	WORD	,$267386895
 bff050cc: 0000100f	(695)	WORD	,$4111
 bff050d0: 857e    	(696)	MOV	R31,R10
 bff050d2: 000a8663	(698)	BEQ	R0,R21,superentry+bff050de(BRANCH)
 bff050d6: 30589073	(699)	CSRRW	CSR(0x305),R17,R0
 bff050da: 34189073	(700)	CSRRW	CSR(0x341),R17,R0
 bff050de: 10589073	(702)	CSRRW	CSR(0x105),R17,R0
 bff050e2: 14189073	(703)	CSRRW	CSR(0x141),R17,R0
 bff050e6: 8882    	(704)	JMP	,0(R17)
 bff050e8: 4118    	(659)	MOVW	0(R10),R14
 bff050ea: c098    	(660)	MOVW	R14,0(R9)
 bff050ec: 9536    	(662)	ADD	R13,R10
 bff050ee: 94b6    	(663)	ADD	R13,R9
 bff050f0: 8d95    	(664)	SUB	R13,R11
 bff050f2: feb04be3	(665)	BLT	R11,R0,forw+bff050e8(BRANCH)
 bff050f6: bf7d    	(667)	JMP	,bff050b4(BRANCH)
 bff050f8: 80018b93	(680)	MOV	$newkern+0(SB),R23
 bff050fc: 0000f537 ccf50513(681)	MOV	$60623,R10
 bff05104: 0100000f	(683)	WORD	,$16777231
 bff05108: 0ff0000f	(684)	WORD	,$267386895
 bff0510c: 000bbe83	(685)	MOV	0(R23),R29
 bff05110: ffd51ae3	(687)	BNE	R29,R10,awaitkern+bff05104(BRANCH)
 bff05114: bf55    	(694)	JMP	,bff050c8(BRANCH)
 bff05116: 0001    	(0)	ADD	$0,R0,R0
 bff05118:		(706)	TEXT	strap+0(SB),R1,$-8
 bff05118: 14202473	(708)	CSRRS	CSR(0x142),R0,R8
 bff0511c: 03040413	(710)	ADD	$48,R8
 bff05120: 0ff0000f	(712)	WORD	,$267386895
 bff05124: 10500073	(713)	SYS	,$261
 bff05128: bfe5    	(712)	JMP	,bff05120(BRANCH)

