 00100028:		(812)	TEXT	b+0(SB),R0,$8
 00100028: f81f0ffe	(812)	MOV	R30,-16(R31)!
 0010002c: f94017e9	(812)	MOV	p1+16(FP),R9
 00100030: f9000fe0	(812)	MOV	R0,a1+0(FP)
 00100034: aa0903e0	(814)	MOV	R9,R0
 00100038: 9400006d	(814)	BL	,atoll+0x1001ec(BRANCH)
 0010003c: f9400fea	(814)	MOV	a1+0(FP),R10
 00100040: b98023e9	(814)	MOVW	i1+8(FP),R9
 00100044: 8b090144	(814)	ADD	R9,R10,R4
 00100048: 8b000080	(814)	ADD	R0,R4,R0
 0010004c: f84107fe	(814)	MOV	(R31)16!,R30
 00100050: d65f03c0	(814)	RET	,0(R30)

 00100054:		(818)	TEXT	a+0(SB),R0,$24
 00100054: f81e0ffe	(818)	MOV	R30,-32(R31)!
 00100058: b98033eb	(818)	MOVW	i1+8(FP),R11
 0010005c: f9401fea	(818)	MOV	p1+16(FP),R10
 00100060: b90013eb	(820)	MOVW	R11,16(R31)
 00100064: f9000fea	(820)	MOV	R10,24(R31)
 00100068: 97fffff0	(820)	BL	,b+0x100028(BRANCH)
 0010006c: f84207fe	(820)	MOV	(R31)32!,R30
 00100070: d65f03c0	(820)	RET	,0(R30)

 00100074:		(824)	TEXT	main+0(SB),R0,$40
 00100074: f81d0ffe	(824)	MOV	R30,-48(R31)!
 00100078: d2800440	(826)	MOV	$34,R0
 0010007c: 528002e4	(826)	MOVW	$23,R4
 00100080: b90013e4	(826)	MOVW	R4,16(R31)
 00100084: f9000fff	(826)	MOV	$0,24(R31)
 00100088: 97fffff3	(826)	BL	,a+0x100054(BRANCH)
 0010008c: f90017e0	(826)	MOV	R0,.safe-8(SP)
 00100090: 91038380	(826)	MOV	$.string<>+0(SB),R0
 00100094: f94017e2	(826)	MOV	.safe-8(SP),R2
 00100098: f9000be2	(826)	MOV	R2,16(R31)
 0010009c: 940000c0	(826)	BL	,print+0x10039c(BRANCH)
 001000a0: d2800000	(827)	MOV	$0,R0
 001000a4: 9400009b	(827)	BL	,exits+0x100310(BRANCH)
 001000a8: f84307fe	(827)	MOV	(R31)48!,R30
 001000ac: d65f03c0	(827)	RET	,0(R30)

 001000b0:		(10)	TEXT	_main+0(SB),R1,$-8
 001000b0: aa1c03e6	(11)	MOV	R28,R6
 001000b4: 58028a7c	(12)	MOV	$setSB+0(SB),R28
 001000b8: 910003e7	(13)	MOV	SP,R7
 001000bc: f900fb87	(15)	MOV	R7,_origSP+0(SB)
 001000c0: f900f388	(16)	MOV	R8,_origR8+0(SB)
 001000c4: f900f789	(17)	MOV	R9,_origR9+0(SB)
 001000c8: f9009b8a	(18)	MOV	R10,_origR10+0(SB)
 001000cc: f9009f8b	(19)	MOV	R11,_origR11+0(SB)
 001000d0: f900a38c	(20)	MOV	R12,_origR12+0(SB)
 001000d4: f900ab8d	(21)	MOV	R13,_origR13+0(SB)
 001000d8: f900b38e	(22)	MOV	R14,_origR14+0(SB)
 001000dc: f900bb8f	(23)	MOV	R15,_origR15+0(SB)
 001000e0: f900c390	(24)	MOV	R16,_origR16+0(SB)
 001000e4: f900cb91	(25)	MOV	R17,_origR17+0(SB)
 001000e8: f900d392	(26)	MOV	R18,_origR18+0(SB)
 001000ec: f900db93	(27)	MOV	R19,_origR19+0(SB)
 001000f0: f900a794	(28)	MOV	R20,_origR20+0(SB)
 001000f4: f900af95	(29)	MOV	R21,_origR21+0(SB)
 001000f8: f900b796	(30)	MOV	R22,_origR22+0(SB)
 001000fc: f900bf97	(31)	MOV	R23,_origR23+0(SB)
 00100100: f900c798	(32)	MOV	R24,_origR24+0(SB)
 00100104: f900cf99	(33)	MOV	R25,_origR25+0(SB)
 00100108: f900d79a	(34)	MOV	R26,_origR26+0(SB)
 0010010c: f900df9b	(35)	MOV	R27,_origR27+0(SB)
 00100110: f900e386	(36)	MOV	R6,_origR28+0(SB)
 00100114: f900e79d	(37)	MOV	R29,_origR29+0(SB)
 00100118: 910003e4	(38)	MOV	SP,R4
 0010011c: f9001784	(40)	MOV	R4,_tos+0(SB)
 00100120: d14013e4	(40)	SUB	$16384,R31,R4
 00100124: f900ff84	(42)	MOV	R4,_privates+0(SB)
 00100128: 98028705	(42)	MOVW	$16,R5
 0010012c: b900c385	(44)	MOVW	R5,_nprivates+0(SB)
 00100130: d1008084	(45)	SUB	$32,R4
 00100134: 9100009f	(45)	MOV	R4,SP
 00100138: f90007e0	(47)	MOV	R0,8(SP)
 0010013c: f9000be1	(48)	MOV	R1,16(SP)
 00100140: f9001382	(49)	MOV	R2,_svc+0(SB)
 00100144: 97ffffcc	(49)	BL	,main+0x100074(BRANCH)
 00100148: 91034380	(52)	MOV	$_exits<>+0(SB),R0
 0010014c: 940000a1	(53)	BL	,_exits+0x1003d0(BRANCH)
 00100150: 17fffffe	(52)	B	,100148(BRANCH)

 00100154:		(56)	TEXT	_callsys+0(SB),$8
 00100154: f81f0ffe	(56)	MOV	R30,-16(R31)!
 00100158: 910003e7	(57)	MOV	SP,R7
 0010015c: f9004787	(59)	MOV	R7,_newSP+0(SB)
 00100160: f940fb87	(59)	MOV	_origSP+0(SB),R7
 00100164: 910000ff	(60)	MOV	R7,SP
 00100168: f9401387	(61)	MOV	_svc+0(SB),R7
 0010016c: f9402380	(62)	MOV	_sysargs+0(SB),R0
 00100170: f9402781	(63)	MOV	_sysargs+8(SB),R1
 00100174: f9402b82	(64)	MOV	_sysargs+16(SB),R2
 00100178: f9402f83	(65)	MOV	_sysargs+24(SB),R3
 0010017c: f940f388	(66)	MOV	_origR8+0(SB),R8
 00100180: f940f789	(67)	MOV	_origR9+0(SB),R9
 00100184: f9409b8a	(68)	MOV	_origR10+0(SB),R10
 00100188: f9409f8b	(69)	MOV	_origR11+0(SB),R11
 0010018c: f940a38c	(70)	MOV	_origR12+0(SB),R12
 00100190: f940ab8d	(71)	MOV	_origR13+0(SB),R13
 00100194: f940b38e	(72)	MOV	_origR14+0(SB),R14
 00100198: f940bb8f	(73)	MOV	_origR15+0(SB),R15
 0010019c: f940c390	(74)	MOV	_origR16+0(SB),R16
 001001a0: f940cb91	(75)	MOV	_origR17+0(SB),R17
 001001a4: f940d392	(76)	MOV	_origR18+0(SB),R18
 001001a8: f940db93	(77)	MOV	_origR19+0(SB),R19
 001001ac: f940a794	(78)	MOV	_origR20+0(SB),R20
 001001b0: f940af95	(79)	MOV	_origR21+0(SB),R21
 001001b4: f940b796	(80)	MOV	_origR22+0(SB),R22
 001001b8: f940bf97	(81)	MOV	_origR23+0(SB),R23
 001001bc: f940c798	(82)	MOV	_origR24+0(SB),R24
 001001c0: f940cf99	(83)	MOV	_origR25+0(SB),R25
 001001c4: f940d79a	(84)	MOV	_origR26+0(SB),R26
 001001c8: f940df9b	(85)	MOV	_origR27+0(SB),R27
 001001cc: f940e79d	(86)	MOV	_origR29+0(SB),R29
 001001d0: f940e39c	(87)	MOV	_origR28+0(SB),R28
 001001d4: d63f00e0	(88)	BL	,0(R7)
 001001d8: 5802815c	(90)	MOV	$setSB+0(SB),R28
 001001dc: f9404784	(91)	MOV	_newSP+0(SB),R4
 001001e0: 9100009f	(92)	MOV	R4,SP
 001001e4: f84107fe	(94)	MOV	(R31)16!,R30
 001001e8: d65f03c0	(94)	RET	,0(R30)

 001001ec:		(812)	TEXT	atoll+0(SB),R0,$24
 001001ec: f81e0ffe	(812)	MOV	R30,-32(R31)!
 001001f0: f9000bff	(814)	MOV	$0,16(R31)
 001001f4: b9001bff	(814)	MOVW	$0,24(R31)
 001001f8: 94000090	(814)	BL	,strtoll+0x100438(BRANCH)
 001001fc: f84207fe	(814)	MOV	(R31)32!,R30
 00100200: d65f03c0	(814)	RET	,0(R30)

 00100204:		(823)	TEXT	atexit+0(SB),R0,$24
 00100204: f81e0ffe	(823)	MOV	R30,-32(R31)!
 00100208: f90017e0	(823)	MOV	R0,f+0(FP)
 0010020c: 9100c380	(827)	MOV	$onexlock<>+0(SB),R0
 00100210: 9400012f	(827)	BL	,lock+0x1006cc(BRANCH)
 00100214: 2a1f03e9	(828)	MOVW	$0,R9
 00100218: 7100853f	(828)	CMPW	$33,R9,
 0010021c: 5400034a	(828)	BGE	,100284(BRANCH)
 00100220: b9001fe9	(829)	MOVW	R9,i-4(SP)
 00100224: d37ced22	(829)	LSL	$4,R9,R2
 00100228: 913f4383	(829)	MOV	$onex+0(SB),R3
 0010022c: 8b030042	(829)	ADD	R3,R2
 00100230: f9400042	(829)	MOV	0(R2),R2
 00100234: eb1f005f	(829)	CMP	$0,R2,
 00100238: 54000221	(829)	BNE	,10027c(BRANCH)
 0010023c: 94000068	(830)	BL	,getpid+0x1003dc(BRANCH)
 00100240: f94017ea	(830)	MOV	f+0(FP),R10
 00100244: b9801fe9	(830)	MOVW	i-4(SP),R9
 00100248: d37ced21	(830)	LSL	$4,R9,R1
 0010024c: 913f4382	(830)	MOV	$onex+0(SB),R2
 00100250: 8b020021	(830)	ADD	R2,R1
 00100254: b9000820	(830)	MOVW	R0,8(R1)
 00100258: d37ced23	(831)	LSL	$4,R9,R3
 0010025c: 913f4384	(831)	MOV	$onex+0(SB),R4
 00100260: 8b040063	(831)	ADD	R4,R3
 00100264: f900006a	(831)	MOV	R10,0(R3)
 00100268: 9100c380	(832)	MOV	$onexlock<>+0(SB),R0
 0010026c: 94000128	(832)	BL	,unlock+0x10070c(BRANCH)
 00100270: 98027ce0	(833)	MOVW	$1,R0
 00100274: f84207fe	(833)	MOV	(R31)32!,R30
 00100278: d65f03c0	(833)	RET	,0(R30)
 0010027c: 11000529	(828)	ADDW	$1,R9,R9
 00100280: 17ffffe6	(828)	B	,100218(BRANCH)
 00100284: 9100c380	(835)	MOV	$onexlock<>+0(SB),R0
 00100288: 94000121	(835)	BL	,unlock+0x10070c(BRANCH)
 0010028c: 2a1f03e0	(836)	MOVW	$0,R0
 00100290: f84207fe	(836)	MOV	(R31)32!,R30
 00100294: d65f03c0	(836)	RET	,0(R30)

 00100298:		(840)	TEXT	atexitdont+0(SB),R0,$8
 00100298: f81f0ffe	(840)	MOV	R30,-16(R31)!
 0010029c: f9000fe0	(840)	MOV	R0,f+0(FP)
 001002a0: 9400004f	(844)	BL	,getpid+0x1003dc(BRANCH)
 001002a4: f9400feb	(844)	MOV	f+0(FP),R11
 001002a8: 93407c0a	(844)	MOVW	R0,R10
 001002ac: 2a1f03e9	(845)	MOVW	$0,R9
 001002b0: 7100853f	(845)	CMPW	$33,R9,
 001002b4: 540002aa	(845)	BGE	,100308(BRANCH)
 001002b8: d37ced23	(846)	LSL	$4,R9,R3
 001002bc: 913f4384	(846)	MOV	$onex+0(SB),R4
 001002c0: 8b040063	(846)	ADD	R4,R3
 001002c4: f9400063	(846)	MOV	0(R3),R3
 001002c8: eb0b007f	(846)	CMP	R11,R3,
 001002cc: 540000e1	(846)	BNE	,1002e8(BRANCH)
 001002d0: d37ced23	(846)	LSL	$4,R9,R3
 001002d4: 913f4384	(846)	MOV	$onex+0(SB),R4
 001002d8: 8b040063	(846)	ADD	R4,R3
 001002dc: b9800863	(846)	MOVW	8(R3),R3
 001002e0: 6b0a007f	(846)	CMPW	R10,R3,
 001002e4: 54000060	(846)	BEQ	,1002f0(BRANCH)
 001002e8: 11000529	(845)	ADDW	$1,R9,R9
 001002ec: 17fffff1	(845)	B	,1002b0(BRANCH)
 001002f0: d37ced23	(847)	LSL	$4,R9,R3
 001002f4: 913f4384	(847)	MOV	$onex+0(SB),R4
 001002f8: 8b040063	(847)	ADD	R4,R3
 001002fc: f900007f	(847)	MOV	$0,0(R3)
 00100300: 11000529	(845)	ADDW	$1,R9,R9
 00100304: 17ffffeb	(845)	B	,1002b0(BRANCH)
 00100308: f84107fe	(847)	MOV	(R31)16!,R30
 0010030c: d65f03c0	(847)	RET	,0(R30)

 00100310:		(853)	TEXT	exits+0(SB),R1,$24
 00100310: f81e0ffe	(853)	MOV	R30,-32(R31)!
 00100314: f90017e0	(853)	MOV	R0,s+0(FP)
 00100318: 94000031	(858)	BL	,getpid+0x1003dc(BRANCH)
 0010031c: b9001be0	(858)	MOVW	R0,pid-8(SP)
 00100320: 98027789	(859)	MOVW	$32,R9
 00100324: 6b1f013f	(859)	CMPW	$0,R9,
 00100328: 5400032b	(859)	BLT	,10038c(BRANCH)
 0010032c: d37ced22	(860)	LSL	$4,R9,R2
 00100330: 913f4384	(860)	MOV	$onex+0(SB),R4
 00100334: 8b040042	(860)	ADD	R4,R2
 00100338: f940004a	(860)	MOV	0(R2),R10
 0010033c: eb1f015f	(860)	CMP	$0,R10,
 00100340: 54000100	(860)	BEQ	,100360(BRANCH)
 00100344: d37ced22	(860)	LSL	$4,R9,R2
 00100348: 913f4383	(860)	MOV	$onex+0(SB),R3
 0010034c: 8b030042	(860)	ADD	R3,R2
 00100350: b9800842	(860)	MOVW	8(R2),R2
 00100354: b9801be5	(860)	MOVW	pid-8(SP),R5
 00100358: 6b0200bf	(860)	CMPW	R2,R5,
 0010035c: 54000060	(860)	BEQ	,100368(BRANCH)
 00100360: 51000529	(859)	SUBW	$1,R9,R9
 00100364: 17fffff0	(859)	B	,100324(BRANCH)
 00100368: b9001fe9	(861)	MOVW	R9,i-4(SP)
 0010036c: d37ced22	(861)	LSL	$4,R9,R2
 00100370: 913f4383	(861)	MOV	$onex+0(SB),R3
 00100374: 8b030042	(861)	ADD	R3,R2
 00100378: f900005f	(861)	MOV	$0,0(R2)
 0010037c: d63f0140	(862)	BL	,0(R10)
 00100380: b9801fe9	(862)	MOVW	i-4(SP),R9
 00100384: 51000529	(859)	SUBW	$1,R9,R9
 00100388: 17ffffe7	(859)	B	,100324(BRANCH)
 0010038c: f94017e0	(864)	MOV	s+0(FP),R0
 00100390: 94000010	(864)	BL	,_exits+0x1003d0(BRANCH)
 00100394: f84207fe	(864)	MOV	(R31)32!,R30
 00100398: d65f03c0	(864)	RET	,0(R30)

 0010039c:		(812)	TEXT	print+0(SB),R0,$40
 0010039c: f81d0ffe	(812)	MOV	R30,-48(R31)!
 001003a0: f9001fe0	(812)	MOV	R0,fmt+0(FP)
 001003a4: 9100e3e2	(817)	MOV	$fmt+0(FP),R2
 001003a8: 91002049	(817)	ADD	$8,R2,R9
 001003ac: 98027300	(818)	MOVW	$1,R0
 001003b0: f9401fe4	(818)	MOV	fmt+0(FP),R4
 001003b4: f9000be4	(818)	MOV	R4,16(R31)
 001003b8: f90013e9	(818)	MOV	R9,args-16(SP)
 001003bc: f9000fe9	(818)	MOV	R9,24(R31)
 001003c0: 94000183	(818)	BL	,vfprint+0x1009cc(BRANCH)
 001003c4: f94013ea	(818)	MOV	args-16(SP),R10
 001003c8: f84307fe	(820)	MOV	(R31)48!,R30
 001003cc: d65f03c0	(820)	RET	,0(R30)

 001003d0:		(1)	TEXT	_exits+0(SB),R1,$-8
 001003d0: f90007e0	(3)	MOV	R0,a0+0(FP)
 001003d4: d4000101	(4)	SVC	,$8
 001003d8: d65f03c0	(5)	RET	,0(R30)

 001003dc:		(812)	TEXT	getpid+0(SB),R0,$56
 001003dc: f81c0ffe	(812)	MOV	R30,-64(R31)!
 001003e0: 9100b3e0	(817)	MOV	$b-20(SP),R0
 001003e4: b90013ff	(817)	MOVW	$0,16(R31)
 001003e8: 52800281	(817)	MOVWU	$20,R1
 001003ec: b9001be1	(817)	MOVW	R1,24(R31)
 001003f0: 940000a6	(817)	BL	,memset+0x100688(BRANCH)
 001003f4: 91004380	(818)	MOV	$.string<>+0(SB),R0
 001003f8: b90013ff	(818)	MOVW	$0,16(R31)
 001003fc: 94000769	(818)	BL	,open+0x1021a0(BRANCH)
 00100400: 6b1f001f	(819)	CMPW	$0,R0,
 00100404: 5400012b	(819)	BLT	,100428(BRANCH)
 00100408: b9002be0	(820)	MOVW	R0,f-24(SP)
 0010040c: 9100b3e2	(820)	MOV	$b-20(SP),R2
 00100410: f9000be2	(820)	MOV	R2,16(R31)
 00100414: 52800284	(820)	MOVW	$20,R4
 00100418: b9001be4	(820)	MOVW	R4,24(R31)
 0010041c: 94000771	(820)	BL	,read+0x1021e0(BRANCH)
 00100420: b9802be0	(820)	MOVW	f-24(SP),R0
 00100424: 94000762	(821)	BL	,close+0x1021ac(BRANCH)
 00100428: 9100b3e0	(823)	MOV	$b-20(SP),R0
 0010042c: 940000de	(823)	BL	,atol+0x1007a4(BRANCH)
 00100430: f84407fe	(823)	MOV	(R31)64!,R30
 00100434: d65f03c0	(823)	RET	,0(R30)

 00100438:		(815)	TEXT	strtoll+0(SB),R0,$56
 00100438: d10103ff	(815)	SUB	$64,R31
 0010043c: b9805bec	(815)	MOVW	base+16(FP),R12
 00100440: f90027e0	(815)	MOV	R0,nptr+0(FP)
 00100444: f94027e9	(821)	MOV	nptr+0(FP),R9
 00100448: b90013ff	(822)	MOVW	$0,neg-48(SP)
 0010044c: d280000f	(823)	MOV	$0,R15
 00100450: 93407dee	(824)	MOVW	R15,R14
 00100454: 93407ded	(825)	MOVW	R15,R13
 00100458: 39800122	(838)	MOVB	0(R9),R2
 0010045c: 7100305f	(838)	CMPW	$12,R2,
 00100460: 5400106c	(838)	BGT	,10066c(BRANCH)
 00100464: 7100305f	(838)	CMPW	$12,R2,
 00100468: 54000fc0	(838)	BEQ	,100660(BRANCH)
 0010046c: 51002442	(838)	SUBW	$9,R2
 00100470: 7100085f	(838)	CMPW	$2,R2,
 00100474: 54000108	(838)	BHI	,100494(BRANCH)
 00100478: 10000083 b8a27871 8b030231 d61f0220(838)	CASE	R2,R3
 00100488: 000001d8	(838)	BCASE	,100660(BRANCH)
 0010048c: 000001d8	(838)	BCASE	,100660(BRANCH)
 00100490: 000001d8	(838)	BCASE	,100660(BRANCH)
 00100494: 39800124	(846)	MOVB	0(R9),R4
 00100498: 7100b49f	(846)	CMPW	$45,R4,
 0010049c: 54000d20	(846)	BEQ	,100640(BRANCH)
 001004a0: 39800125	(846)	MOVB	0(R9),R5
 001004a4: 7100acbf	(846)	CMPW	$43,R5,
 001004a8: 54000cc0	(846)	BEQ	,100640(BRANCH)
 001004ac: 6b1f019f	(853)	CMPW	$0,R12,
 001004b0: 54000a41	(853)	BNE	,1005f8(BRANCH)
 001004b4: 5280014c	(854)	MOVW	$10,R12
 001004b8: 39800124	(855)	MOVB	0(R9),R4
 001004bc: 7100c09f	(855)	CMPW	$48,R4,
 001004c0: 54000101	(855)	BNE	,1004e0(BRANCH)
 001004c4: 98026a8c	(856)	MOVW	$8,R12
 001004c8: 39800521	(857)	MOVB	1(R9),R1
 001004cc: 7101e03f	(857)	CMPW	$120,R1,
 001004d0: 540008e0	(857)	BEQ	,1005ec(BRANCH)
 001004d4: 39800522	(857)	MOVB	1(R9),R2
 001004d8: 7101605f	(857)	CMPW	$88,R2,
 001004dc: 54000880	(857)	BEQ	,1005ec(BRANCH)
 001004e0: 92f00005	(873)	MOV	$9223372036854775807,R5
 001004e4: 9acc0ca4	(873)	SDIV	R12,R5,R4
 001004e8: f90013e4	(873)	MOV	R4,m-32(SP)
 001004ec: 39800122	(875)	MOVB	0(R9),R2
 001004f0: 93407c4a	(875)	MOVW	R2,R10
 001004f4: 93407d8b	(876)	MOVW	R12,R11
 001004f8: 7100c05f	(877)	CMPW	$48,R2,
 001004fc: 5400006b	(877)	BLT	,100508(BRANCH)
 00100500: 7100e55f	(877)	CMPW	$57,R10,
 00100504: 5400070d	(877)	BLE	,1005e4(BRANCH)
 00100508: 7101855f	(880)	CMPW	$97,R10,
 0010050c: 5400006b	(880)	BLT	,100518(BRANCH)
 00100510: 7101e95f	(880)	CMPW	$122,R10,
 00100514: 5400064d	(880)	BLE	,1005dc(BRANCH)
 00100518: 7101055f	(883)	CMPW	$65,R10,
 0010051c: 5400006b	(883)	BLT	,100528(BRANCH)
 00100520: 7101695f	(883)	CMPW	$90,R10,
 00100524: 5400058d	(883)	BLE	,1005d4(BRANCH)
 00100528: 6b0c017f	(885)	CMPW	R12,R11,
 0010052c: 540003ab	(885)	BLT	,1005a0(BRANCH)
 00100530: 6b1f01ff	(896)	CMPW	$0,R15,
 00100534: 54000041	(896)	BNE	,10053c(BRANCH)
 00100538: f94027e9	(897)	MOV	nptr+0(FP),R9
 0010053c: f9402be5	(898)	MOV	endptr+8(FP),R5
 00100540: eb1f00bf	(898)	CMP	$0,R5,
 00100544: 54000060	(898)	BEQ	,100550(BRANCH)
 00100548: f9402be2	(899)	MOV	endptr+8(FP),R2
 0010054c: f9000049	(899)	MOV	R9,0(R2)
 00100550: 6b1f01df	(900)	CMPW	$0,R14,
 00100554: 54000140	(900)	BEQ	,10057c(BRANCH)
 00100558: b98013e3	(901)	MOVW	neg-48(SP),R3
 0010055c: 6b1f007f	(901)	CMPW	$0,R3,
 00100560: 54000080	(901)	BEQ	,100570(BRANCH)
 00100564: d2f00000	(902)	MOV	$-9223372036854775808,R0
 00100568: 910103ff	(902)	ADD	$64,R31
 0010056c: d65f03c0	(902)	RET	,0(R30)
 00100570: 92f00000	(903)	MOV	$9223372036854775807,R0
 00100574: 910103ff	(903)	ADD	$64,R31
 00100578: d65f03c0	(903)	RET	,0(R30)
 0010057c: b98013e5	(905)	MOVW	neg-48(SP),R5
 00100580: 6b1f00bf	(905)	CMPW	$0,R5,
 00100584: 54000080	(905)	BEQ	,100594(BRANCH)
 00100588: cb0d03e0	(906)	NEG	R13,R0
 0010058c: 910103ff	(906)	ADD	$64,R31
 00100590: d65f03c0	(906)	RET	,0(R30)
 00100594: aa0d03e0	(907)	MOV	R13,R0
 00100598: 910103ff	(907)	ADD	$64,R31
 0010059c: d65f03c0	(907)	RET	,0(R30)
 001005a0: f94013e3	(887)	MOV	m-32(SP),R3
 001005a4: eb0301bf	(887)	CMP	R3,R13,
 001005a8: 5400004d	(887)	BLE	,1005b0(BRANCH)
 001005ac: 9802630e	(888)	MOVW	$1,R14
 001005b0: 9b0c7da1	(889)	MUL	R12,R13,R1
 001005b4: 8b0b002a	(889)	ADD	R11,R1,R10
 001005b8: eb0d015f	(890)	CMP	R13,R10,
 001005bc: 5400004a	(890)	BGE	,1005c4(BRANCH)
 001005c0: 9802626e	(891)	MOVW	$1,R14
 001005c4: aa0a03ed	(892)	MOV	R10,R13
 001005c8: 91000529	(874)	ADD	$1,R9,R9
 001005cc: 110005ef	(874)	ADDW	$1,R15,R15
 001005d0: 17ffffc7	(875)	B	,1004ec(BRANCH)
 001005d4: 5100dd4b	(884)	SUBW	$55,R10,R11
 001005d8: 17ffffd4	(885)	B	,100528(BRANCH)
 001005dc: 51015d4b	(881)	SUBW	$87,R10,R11
 001005e0: 17ffffd2	(885)	B	,100528(BRANCH)
 001005e4: 5100c14b	(878)	SUBW	$48,R10,R11
 001005e8: 17ffffd0	(885)	B	,100528(BRANCH)
 001005ec: 91000929	(858)	ADD	$2,R9,R9
 001005f0: 980260cc	(859)	MOVW	$16,R12
 001005f4: 17ffffbb	(873)	B	,1004e0(BRANCH)
 001005f8: 7100419f	(863)	CMPW	$16,R12,
 001005fc: 54000081	(863)	BNE	,10060c(BRANCH)
 00100600: 39800124	(863)	MOVB	0(R9),R4
 00100604: 7100c09f	(863)	CMPW	$48,R4,
 00100608: 540000c0	(863)	BEQ	,100620(BRANCH)
 0010060c: 6b1f019f	(867)	CMPW	$0,R12,
 00100610: 54fff90b	(867)	BLT	,100530(BRANCH)
 00100614: 7100919f	(867)	CMPW	$36,R12,
 00100618: 54fff64d	(867)	BLE	,1004e0(BRANCH)
 0010061c: 17ffffc5	(896)	B	,100530(BRANCH)
 00100620: 39800525	(864)	MOVB	1(R9),R5
 00100624: 7101e0bf	(864)	CMPW	$120,R5,
 00100628: 54000080	(864)	BEQ	,100638(BRANCH)
 0010062c: 39800521	(864)	MOVB	1(R9),R1
 00100630: 7101603f	(864)	CMPW	$88,R1,
 00100634: 54fff561	(864)	BNE	,1004e0(BRANCH)
 00100638: 91000929	(865)	ADD	$2,R9,R9
 0010063c: 17ffffa9	(873)	B	,1004e0(BRANCH)
 00100640: aa0903e1	(847)	MOV	R9,R1
 00100644: 91000529	(847)	ADD	$1,R9,R9
 00100648: 39800021	(847)	MOVB	0(R1),R1
 0010064c: 7100b43f	(847)	CMPW	$45,R1,
 00100650: 54fff2e1	(847)	BNE	,1004ac(BRANCH)
 00100654: 98025dc5	(848)	MOVW	$1,R5
 00100658: b90013e5	(848)	MOVW	R5,neg-48(SP)
 0010065c: 17ffff94	(853)	B	,1004ac(BRANCH)
 00100660: 91000524	(830)	ADD	$1,R9,R4
 00100664: aa0403e9	(830)	MOV	R4,R9
 00100668: 17ffff7c	(838)	B	,100458(BRANCH)
 0010066c: 7100345f	(838)	CMPW	$13,R2,
 00100670: 54ffff80	(838)	BEQ	,100660(BRANCH)
 00100674: 7100805f	(838)	CMPW	$32,R2,
 00100678: 54fff0e1	(838)	BNE	,100494(BRANCH)
 0010067c: 91000524	(830)	ADD	$1,R9,R4
 00100680: aa0403e9	(830)	MOV	R4,R9
 00100684: 17ffff75	(838)	B	,100458(BRANCH)

 00100688:		(812)	TEXT	memset+0(SB),R0,$8
 00100688: d10043ff	(812)	SUB	$16,R31
 0010068c: b98023eb	(812)	MOVW	c+8(FP),R11
 00100690: b9402be9	(812)	MOVWU	n+16(FP),R9
 00100694: aa0003ec	(812)	MOV	R0,R12
 00100698: aa0003ea	(816)	MOV	R0,R10
 0010069c: 2a0903e4	(817)	MOVWU	R9,R4
 001006a0: 6b1f009f	(817)	CMPW	$0,R4,
 001006a4: 540000e9	(817)	BLS	,1006c0(BRANCH)
 001006a8: aa0a03e1	(818)	MOV	R10,R1
 001006ac: 9100054a	(818)	ADD	$1,R10,R10
 001006b0: 3900002b	(818)	MOVB	R11,0(R1)
 001006b4: 2a0903e1	(819)	MOVWU	R9,R1
 001006b8: 51000429	(819)	SUBW	$1,R1,R9
 001006bc: 17fffff8	(817)	B	,10069c(BRANCH)
 001006c0: aa0c03e0	(821)	MOV	R12,R0
 001006c4: 910043ff	(821)	ADD	$16,R31
 001006c8: d65f03c0	(821)	RET	,0(R30)

 001006cc:		(812)	TEXT	lock+0(SB),R0,$24
 001006cc: f81e0ffe	(812)	MOV	R30,-32(R31)!
 001006d0: f90017e0	(814)	MOV	R0,l+0(FP)
 001006d4: 940006d9	(814)	BL	,ainc+0x102238(BRANCH)
 001006d8: 7100041f	(814)	CMPW	$1,R0,
 001006dc: 54000061	(814)	BNE	,1006e8(BRANCH)
 001006e0: f84207fe	(815)	MOV	(R31)32!,R30
 001006e4: d65f03c0	(815)	RET	,0(R30)
 001006e8: f94017e0	(817)	MOV	l+0(FP),R0
 001006ec: 91001000	(817)	ADD	$4,R0
 001006f0: 980258e1	(817)	MOVW	$1,R1
 001006f4: b90013e1	(817)	MOVW	R1,16(R31)
 001006f8: 940006a7	(817)	BL	,semacquire+0x102194(BRANCH)
 001006fc: 6b1f001f	(817)	CMPW	$0,R0,
 00100700: 54ffff4b	(817)	BLT	,1006e8(BRANCH)
 00100704: f84207fe	(819)	MOV	(R31)32!,R30
 00100708: d65f03c0	(819)	RET	,0(R30)

 0010070c:		(823)	TEXT	unlock+0(SB),R0,$24
 0010070c: f81e0ffe	(823)	MOV	R30,-32(R31)!
 00100710: f90017e0	(825)	MOV	R0,l+0(FP)
 00100714: 940006cf	(825)	BL	,adec+0x102250(BRANCH)
 00100718: f94017e9	(825)	MOV	l+0(FP),R9
 0010071c: 6b1f001f	(825)	CMPW	$0,R0,
 00100720: 54000061	(825)	BNE	,10072c(BRANCH)
 00100724: f84207fe	(826)	MOV	(R31)32!,R30
 00100728: d65f03c0	(826)	RET	,0(R30)
 0010072c: 91001120	(827)	ADD	$4,R9,R0
 00100730: 980256e2	(827)	MOVW	$1,R2
 00100734: b90013e2	(827)	MOVW	R2,16(R31)
 00100738: 94000694	(827)	BL	,semrelease+0x102188(BRANCH)
 0010073c: f84207fe	(827)	MOV	(R31)32!,R30
 00100740: d65f03c0	(827)	RET	,0(R30)

 00100744:		(831)	TEXT	canlock+0(SB),R0,$24
 00100744: f81e0ffe	(831)	MOV	R30,-32(R31)!
 00100748: f90017e0	(833)	MOV	R0,l+0(FP)
 0010074c: 940006bb	(833)	BL	,ainc+0x102238(BRANCH)
 00100750: f94017e9	(833)	MOV	l+0(FP),R9
 00100754: 7100041f	(833)	CMPW	$1,R0,
 00100758: 54000081	(833)	BNE	,100768(BRANCH)
 0010075c: 98025580	(834)	MOVW	$1,R0
 00100760: f84207fe	(834)	MOV	(R31)32!,R30
 00100764: d65f03c0	(834)	RET	,0(R30)
 00100768: aa0903e0	(836)	MOV	R9,R0
 0010076c: 940006b9	(836)	BL	,adec+0x102250(BRANCH)
 00100770: f94017e9	(836)	MOV	l+0(FP),R9
 00100774: 6b1f001f	(836)	CMPW	$0,R0,
 00100778: 54000081	(836)	BNE	,100788(BRANCH)
 0010077c: 2a1f03e0	(837)	MOVW	$0,R0
 00100780: f84207fe	(837)	MOV	(R31)32!,R30
 00100784: d65f03c0	(837)	RET	,0(R30)
 00100788: 91001120	(838)	ADD	$4,R9,R0
 0010078c: 98025405	(838)	MOVW	$1,R5
 00100790: b90013e5	(838)	MOVW	R5,16(R31)
 00100794: 9400067d	(838)	BL	,semrelease+0x102188(BRANCH)
 00100798: 2a1f03e0	(839)	MOVW	$0,R0
 0010079c: f84207fe	(839)	MOV	(R31)32!,R30
 001007a0: d65f03c0	(839)	RET	,0(R30)

 001007a4:		(812)	TEXT	atol+0(SB),R0,$24
 001007a4: d10083ff	(812)	SUB	$32,R31
 001007a8: aa0003e9	(812)	MOV	R0,R9
 001007ac: 2a1f03ea	(817)	MOVW	$0,R10
 001007b0: 93407d4c	(818)	MOVW	R10,R12
 001007b4: 39800122	(819)	MOVB	0(R9),R2
 001007b8: 7100805f	(819)	CMPW	$32,R2,
 001007bc: 54000c80	(819)	BEQ	,10094c(BRANCH)
 001007c0: 39800123	(819)	MOVB	0(R9),R3
 001007c4: 7100247f	(819)	CMPW	$9,R3,
 001007c8: 54000c20	(819)	BEQ	,10094c(BRANCH)
 001007cc: 39800122	(821)	MOVB	0(R9),R2
 001007d0: 7100b45f	(821)	CMPW	$45,R2,
 001007d4: 54000a00	(821)	BEQ	,100914(BRANCH)
 001007d8: 39800123	(821)	MOVB	0(R9),R3
 001007dc: 7100ac7f	(821)	CMPW	$43,R3,
 001007e0: 540009a0	(821)	BEQ	,100914(BRANCH)
 001007e4: 39800124	(827)	MOVB	0(R9),R4
 001007e8: 7100c09f	(827)	CMPW	$48,R4,
 001007ec: 54000081	(827)	BNE	,1007fc(BRANCH)
 001007f0: 39800525	(827)	MOVB	1(R9),R5
 001007f4: 6b1f00bf	(827)	CMPW	$0,R5,
 001007f8: 540002c1	(827)	BNE	,100850(BRANCH)
 001007fc: 39800124	(848)	MOVB	0(R9),R4
 00100800: 7100c09f	(848)	CMPW	$48,R4,
 00100804: 5400008b	(848)	BLT	,100814(BRANCH)
 00100808: 39800125	(848)	MOVB	0(R9),R5
 0010080c: 7100e4bf	(848)	CMPW	$57,R5,
 00100810: 540000ed	(848)	BLE	,10082c(BRANCH)
 00100814: 6b1f019f	(850)	CMPW	$0,R12,
 00100818: 54000040	(850)	BEQ	,100820(BRANCH)
 0010081c: 4b0a03ea	(851)	NEGW	R10,R10
 00100820: 93407d40	(852)	MOVW	R10,R0
 00100824: 910083ff	(852)	ADD	$32,R31
 00100828: d65f03c0	(852)	RET	,0(R30)
 0010082c: 531e7545	(849)	LSLW	$2,R10,R5
 00100830: 0b050141	(849)	ADDW	R5,R10,R1
 00100834: 531f7821	(849)	LSLW	$1,R1,R1
 00100838: aa0903e2	(849)	MOV	R9,R2
 0010083c: 91000529	(849)	ADD	$1,R9,R9
 00100840: 39800042	(849)	MOVB	0(R2),R2
 00100844: 0b020021	(849)	ADDW	R2,R1
 00100848: 5100c02a	(849)	SUBW	$48,R1,R10
 0010084c: 17ffffec	(848)	B	,1007fc(BRANCH)
 00100850: 39800524	(828)	MOVB	1(R9),R4
 00100854: 7101e09f	(828)	CMPW	$120,R4,
 00100858: 54000220	(828)	BEQ	,10089c(BRANCH)
 0010085c: 39800525	(828)	MOVB	1(R9),R5
 00100860: 710160bf	(828)	CMPW	$88,R5,
 00100864: 540001c0	(828)	BEQ	,10089c(BRANCH)
 00100868: 39800124	(845)	MOVB	0(R9),R4
 0010086c: 7100c09f	(845)	CMPW	$48,R4,
 00100870: 54fffd2b	(845)	BLT	,100814(BRANCH)
 00100874: 39800125	(845)	MOVB	0(R9),R5
 00100878: 7100dcbf	(845)	CMPW	$55,R5,
 0010087c: 54fffccc	(845)	BGT	,100814(BRANCH)
 00100880: 531d7141	(846)	LSLW	$3,R10,R1
 00100884: aa0903e4	(846)	MOV	R9,R4
 00100888: 91000529	(846)	ADD	$1,R9,R9
 0010088c: 39800084	(846)	MOVB	0(R4),R4
 00100890: 0b040021	(846)	ADDW	R4,R1
 00100894: 5100c02a	(846)	SUBW	$48,R1,R10
 00100898: 17fffff4	(845)	B	,100868(BRANCH)
 0010089c: 9100092b	(829)	ADD	$2,R9,R11
 001008a0: 39800164	(831)	MOVB	0(R11),R4
 001008a4: 93407c89	(831)	MOVW	R4,R9
 001008a8: 7100c09f	(832)	CMPW	$48,R4,
 001008ac: 5400006b	(832)	BLT	,1008b8(BRANCH)
 001008b0: 7100e53f	(832)	CMPW	$57,R9,
 001008b4: 5400026d	(832)	BLE	,100900(BRANCH)
 001008b8: 7101853f	(835)	CMPW	$97,R9,
 001008bc: 5400006b	(835)	BLT	,1008c8(BRANCH)
 001008c0: 7101993f	(835)	CMPW	$102,R9,
 001008c4: 5400014d	(835)	BLE	,1008ec(BRANCH)
 001008c8: 7101053f	(838)	CMPW	$65,R9,
 001008cc: 54fffa4b	(838)	BLT	,100814(BRANCH)
 001008d0: 7101193f	(838)	CMPW	$70,R9,
 001008d4: 54fffa0c	(838)	BGT	,100814(BRANCH)
 001008d8: 531c6d45	(839)	LSLW	$4,R10,R5
 001008dc: 0b0900a5	(839)	ADDW	R9,R5
 001008e0: 5100dcaa	(839)	SUBW	$55,R5,R10
 001008e4: 9100056b	(842)	ADD	$1,R11,R11
 001008e8: 17ffffee	(831)	B	,1008a0(BRANCH)
 001008ec: 531c6d45	(836)	LSLW	$4,R10,R5
 001008f0: 0b0900a5	(836)	ADDW	R9,R5
 001008f4: 51015caa	(836)	SUBW	$87,R5,R10
 001008f8: 9100056b	(842)	ADD	$1,R11,R11
 001008fc: 17ffffe9	(831)	B	,1008a0(BRANCH)
 00100900: 531c6d45	(833)	LSLW	$4,R10,R5
 00100904: 0b0900a5	(833)	ADDW	R9,R5
 00100908: 5100c0aa	(833)	SUBW	$48,R5,R10
 0010090c: 9100056b	(842)	ADD	$1,R11,R11
 00100910: 17ffffe4	(831)	B	,1008a0(BRANCH)
 00100914: aa0903e4	(822)	MOV	R9,R4
 00100918: 91000529	(822)	ADD	$1,R9,R9
 0010091c: 39800084	(822)	MOVB	0(R4),R4
 00100920: 7100b49f	(822)	CMPW	$45,R4,
 00100924: 54000041	(822)	BNE	,10092c(BRANCH)
 00100928: 9802472c	(823)	MOVW	$1,R12
 0010092c: 39800124	(824)	MOVB	0(R9),R4
 00100930: 7100809f	(824)	CMPW	$32,R4,
 00100934: 54000080	(824)	BEQ	,100944(BRANCH)
 00100938: 39800125	(824)	MOVB	0(R9),R5
 0010093c: 710024bf	(824)	CMPW	$9,R5,
 00100940: 54fff521	(824)	BNE	,1007e4(BRANCH)
 00100944: 91000529	(825)	ADD	$1,R9,R9
 00100948: 17fffff9	(824)	B	,10092c(BRANCH)
 0010094c: 91000529	(820)	ADD	$1,R9,R9
 00100950: 17ffff99	(819)	B	,1007b4(BRANCH)

 00100954:		(856)	TEXT	atoi+0(SB),R0,$8
 00100954: f81f0ffe	(856)	MOV	R30,-16(R31)!
 00100958: 97ffff93	(859)	BL	,atol+0x1007a4(BRANCH)
 0010095c: f84107fe	(859)	MOV	(R31)16!,R30
 00100960: d65f03c0	(859)	RET	,0(R30)

 00100964:		(902)	TEXT	_fmtFdFlush+0(SB),R0,$40
 00100964: f81d0ffe	(902)	MOV	R30,-48(R31)!
 00100968: aa0003e9	(902)	MOV	R0,R9
 0010096c: f9400802	(906)	MOV	16(R0),R2
 00100970: f9400403	(906)	MOV	8(R0),R3
 00100974: cb03004a	(906)	SUB	R3,R2,R10
 00100978: 6b1f015f	(907)	CMPW	$0,R10,
 0010097c: 54000180	(907)	BEQ	,1009ac(BRANCH)
 00100980: f9401520	(907)	MOV	40(R9),R0
 00100984: f9001fe9	(907)	MOV	R9,f+0(FP)
 00100988: f9400522	(907)	MOV	8(R9),R2
 0010098c: f9000be2	(907)	MOV	R2,16(R31)
 00100990: b9002fea	(907)	MOVW	R10,n-4(SP)
 00100994: b9001bea	(907)	MOVW	R10,24(R31)
 00100998: 94000608	(907)	BL	,write+0x1021b8(BRANCH)
 0010099c: b9802fea	(907)	MOVW	n-4(SP),R10
 001009a0: f9401fe9	(907)	MOV	f+0(FP),R9
 001009a4: 6b0a001f	(907)	CMPW	R10,R0,
 001009a8: 540000c1	(907)	BNE	,1009c0(BRANCH)
 001009ac: f9400524	(909)	MOV	8(R9),R4
 001009b0: f9000924	(909)	MOV	R4,16(R9)
 001009b4: 980242c0	(910)	MOVW	$1,R0
 001009b8: f84307fe	(910)	MOV	(R31)48!,R30
 001009bc: d65f03c0	(910)	RET	,0(R30)
 001009c0: 2a1f03e0	(908)	MOVW	$0,R0
 001009c4: f84307fe	(908)	MOV	(R31)48!,R30
 001009c8: d65f03c0	(908)	RET	,0(R30)

 001009cc:		(914)	TEXT	vfprint+0(SB),R0,$376
 001009cc: d10243ff	(914)	SUB	$144,R31
 001009d0: f8110ffe	(914)	MOV	R30,-240(R31)!
 001009d4: 93407c09	(914)	MOVW	R0,R9
 001009d8: 9104c3e0	(920)	MOV	$f-80(SP),R0
 001009dc: b90013e9	(920)	MOVW	R9,16(R31)
 001009e0: 9100c3e3	(920)	MOV	$buf-336(SP),R3
 001009e4: f9000fe3	(920)	MOV	R3,24(R31)
 001009e8: 98024185	(920)	MOVW	$256,R5
 001009ec: b90023e5	(920)	MOVW	R5,32(R31)
 001009f0: 94000024	(920)	BL	,fmtfdinit+0x100a80(BRANCH)
 001009f4: f940cfea	(920)	MOV	args+16(FP),R10
 001009f8: f940cbe9	(920)	MOV	fmt+8(FP),R9
 001009fc: f900b7ea	(921)	MOV	R10,f-24(SP)
 00100a00: 9104c3e0	(922)	MOV	$f-80(SP),R0
 00100a04: f9000be9	(922)	MOV	R9,16(R31)
 00100a08: 9400002c	(922)	BL	,dofmt+0x100ab8(BRANCH)
 00100a0c: 93407c09	(922)	MOVW	R0,R9
 00100a10: b9002fe0	(923)	MOVW	R0,n-340(SP)
 00100a14: 6b1f001f	(923)	CMPW	$0,R0,
 00100a18: 540000cd	(923)	BLE	,100a30(BRANCH)
 00100a1c: 9104c3e0	(923)	MOV	$f-80(SP),R0
 00100a20: 97ffffd1	(923)	BL	,_fmtFdFlush+0x100964(BRANCH)
 00100a24: b9802fe9	(923)	MOVW	n-340(SP),R9
 00100a28: 6b1f001f	(923)	CMPW	$0,R0,
 00100a2c: 540000a0	(923)	BEQ	,100a40(BRANCH)
 00100a30: 93407d20	(925)	MOVW	R9,R0
 00100a34: f84f07fe	(925)	MOV	(R31)240!,R30
 00100a38: 910243ff	(0)	ADD	$144,R31
 00100a3c: d65f03c0	(0)	RET	,0(R30)
 00100a40: 12800000	(924)	MOVW	$-1,R0
 00100a44: f84f07fe	(924)	MOV	(R31)240!,R30
 00100a48: 910243ff	(0)	ADD	$144,R31
 00100a4c: d65f03c0	(0)	RET	,0(R30)

 00100a50:		(902)	TEXT	fmtfdflush+0(SB),R0,$8
 00100a50: f81f0ffe	(902)	MOV	R30,-16(R31)!
 00100a54: f9000fe0	(904)	MOV	R0,f+0(FP)
 00100a58: 97ffffc3	(904)	BL	,_fmtFdFlush+0x100964(BRANCH)
 00100a5c: f9400fe9	(904)	MOV	f+0(FP),R9
 00100a60: 6b1f001f	(904)	CMPW	$0,R0,
 00100a64: 5400008c	(904)	BGT	,100a74(BRANCH)
 00100a68: 12800000	(905)	MOVW	$-1,R0
 00100a6c: f84107fe	(905)	MOV	(R31)16!,R30
 00100a70: d65f03c0	(905)	RET	,0(R30)
 00100a74: b9803120	(906)	MOVW	48(R9),R0
 00100a78: f84107fe	(906)	MOV	(R31)16!,R30
 00100a7c: d65f03c0	(906)	RET	,0(R30)

 00100a80:		(913)	TEXT	fmtfdinit+0(SB),R0,$-8
 00100a80: b98023ec	(913)	MOVW	size+24(FP),R12
 00100a84: b98013eb	(913)	MOVW	fd+8(FP),R11
 00100a88: f9400fea	(913)	MOV	buf+16(FP),R10
 00100a8c: 3900001f	(915)	MOVBU	$0,0(R0)
 00100a90: f900040a	(916)	MOV	R10,8(R0)
 00100a94: f900080a	(917)	MOV	R10,16(R0)
 00100a98: 8b0a0181	(918)	ADD	R10,R12,R1
 00100a9c: f9000c01	(918)	MOV	R1,24(R0)
 00100aa0: 58023c01	(919)	MOV	$_fmtFdFlush+0(SB),R1
 00100aa4: f9001001	(919)	MOV	R1,32(R0)
 00100aa8: f900140b	(920)	MOV	R11,40(R0)
 00100aac: b900301f	(921)	MOVW	$0,48(R0)
 00100ab0: 2a1f03e0	(922)	MOVW	$0,R0
 00100ab4: d65f03c0	(922)	RET	,0(R30)

 00100ab8:		(899)	TEXT	dofmt+0(SB),R0,$88
 00100ab8: f81a0ffe	(899)	MOV	R30,-96(R31)!
 00100abc: f9403beb	(899)	MOV	fmt+8(FP),R11
 00100ac0: aa0003ea	(899)	MOV	R0,R10
 00100ac4: b9803002	(906)	MOVW	48(R0),R2
 00100ac8: b9002be2	(906)	MOVW	R2,nfmt-56(SP)
 00100acc: 39400142	(908)	MOVBU	0(R10),R2
 00100ad0: 6b1f005f	(908)	CMPW	$0,R2,
 00100ad4: 54000a40	(908)	BEQ	,100c1c(BRANCH)
 00100ad8: f9400949	(909)	MOV	16(R10),R9
 00100adc: f9002be9	(909)	MOV	R9,rt-16(SP)
 00100ae0: f90037ea	(910)	MOV	R10,f+0(FP)
 00100ae4: f9400d4d	(910)	MOV	24(R10),R13
 00100ae8: f90027ed	(910)	MOV	R13,rs-24(SP)
 00100aec: 39400161	(911)	MOVBU	0(R11),R1
 00100af0: 93407c2c	(911)	MOVW	R1,R12
 00100af4: 6b1f003f	(911)	CMPW	$0,R1,
 00100af8: 54000060	(911)	BEQ	,100b04(BRANCH)
 00100afc: 7100959f	(911)	CMPW	$37,R12,
 00100b00: 54000381	(911)	BNE	,100b70(BRANCH)
 00100b04: 9100056b	(920)	ADD	$1,R11,R11
 00100b08: f9400942	(921)	MOV	16(R10),R2
 00100b0c: cb020122	(921)	SUB	R2,R9,R2
 00100b10: 13027c42	(921)	ASRW	$2,R2
 00100b14: b9803141	(921)	MOVW	48(R10),R1
 00100b18: 0b020022	(921)	ADDW	R2,R1,R2
 00100b1c: b9003142	(921)	MOVW	R2,48(R10)
 00100b20: f9000949	(922)	MOV	R9,16(R10)
 00100b24: 6b1f019f	(923)	CMPW	$0,R12,
 00100b28: 540000c1	(923)	BNE	,100b40(BRANCH)
 00100b2c: b9803145	(924)	MOVW	48(R10),R5
 00100b30: b9802be6	(924)	MOVW	nfmt-56(SP),R6
 00100b34: 4b0600a0	(924)	SUBW	R6,R5,R0
 00100b38: f84607fe	(924)	MOV	(R31)96!,R30
 00100b3c: d65f03c0	(924)	RET	,0(R30)
 00100b40: f9000d4d	(925)	MOV	R13,24(R10)
 00100b44: aa0a03e0	(954)	MOV	R10,R0
 00100b48: f9000beb	(954)	MOV	R11,16(R31)
 00100b4c: b9001bff	(954)	MOVW	$0,24(R31)
 00100b50: 940007aa	(954)	BL	,_fmtdispatch+0x1029f8(BRANCH)
 00100b54: f94037ea	(954)	MOV	f+0(FP),R10
 00100b58: aa0003eb	(954)	MOV	R0,R11
 00100b5c: eb1f001f	(955)	CMP	$0,R0,
 00100b60: 54fffb61	(955)	BNE	,100acc(BRANCH)
 00100b64: 12800000	(956)	MOVW	$-1,R0
 00100b68: f84607fe	(956)	MOV	(R31)96!,R30
 00100b6c: d65f03c0	(956)	RET	,0(R30)
 00100b70: b90047ec	(912)	MOVW	R12,r-28(SP)
 00100b74: 7102019f	(912)	CMPW	$128,R12,
 00100b78: 5400038a	(912)	BGE	,100be8(BRANCH)
 00100b7c: 9100056b	(913)	ADD	$1,R11,R11
 00100b80: f9003beb	(913)	MOV	R11,fmt+8(FP)
 00100b84: 91001122	(918)	ADD	$4,R9,R2
 00100b88: eb0d005f	(918)	CMP	R13,R2,
 00100b8c: 540001c9	(918)	BLS	,100bc4(BRANCH)
 00100b90: aa0a03e0	(918)	MOV	R10,R0
 00100b94: f9000be9	(918)	MOV	R9,16(R31)
 00100b98: 98023485	(918)	MOVW	$4,R5
 00100b9c: b9001be5	(918)	MOVW	R5,24(R31)
 00100ba0: 9400007f	(918)	BL	,_fmtflush+0x100d9c(BRANCH)
 00100ba4: b98047ec	(918)	MOVW	r-28(SP),R12
 00100ba8: f9403beb	(918)	MOV	fmt+8(FP),R11
 00100bac: f94037ea	(918)	MOV	f+0(FP),R10
 00100bb0: aa0003e9	(918)	MOV	R0,R9
 00100bb4: eb1f001f	(918)	CMP	$0,R0,
 00100bb8: 54000120	(918)	BEQ	,100bdc(BRANCH)
 00100bbc: f9400d4d	(918)	MOV	24(R10),R13
 00100bc0: f90027ed	(918)	MOV	R13,rs-24(SP)
 00100bc4: aa0903e5	(918)	MOV	R9,R5
 00100bc8: 91001129	(918)	ADD	$4,R9,R9
 00100bcc: f9002be9	(918)	MOV	R9,rt-16(SP)
 00100bd0: 2a0c03e6	(918)	MOVWU	R12,R6
 00100bd4: b90000a6	(918)	MOVWU	R6,0(R5)
 00100bd8: 17ffffc5	(911)	B	,100aec(BRANCH)
 00100bdc: 12800000	(918)	MOVW	$-1,R0
 00100be0: f84607fe	(918)	MOV	(R31)96!,R30
 00100be4: d65f03c0	(918)	RET	,0(R30)
 00100be8: 910173e0	(915)	MOV	$rune-4(SP),R0
 00100bec: f9003beb	(915)	MOV	R11,fmt+8(FP)
 00100bf0: f9000beb	(915)	MOV	R11,16(R31)
 00100bf4: 940005e3	(915)	BL	,chartorune+0x102380(BRANCH)
 00100bf8: f9403beb	(915)	MOV	fmt+8(FP),R11
 00100bfc: f94027ed	(915)	MOV	rs-24(SP),R13
 00100c00: f9402be9	(915)	MOV	rt-16(SP),R9
 00100c04: f94037ea	(915)	MOV	f+0(FP),R10
 00100c08: 8b00016b	(915)	ADD	R0,R11,R11
 00100c0c: f9003beb	(915)	MOV	R11,fmt+8(FP)
 00100c10: b9805fec	(916)	MOVW	rune-4(SP),R12
 00100c14: b90047ec	(916)	MOVW	R12,r-28(SP)
 00100c18: 17ffffdb	(918)	B	,100b84(BRANCH)
 00100c1c: f9400949	(927)	MOV	16(R10),R9
 00100c20: f9001fe9	(927)	MOV	R9,t-40(SP)
 00100c24: f90037ea	(928)	MOV	R10,f+0(FP)
 00100c28: f9400d4d	(928)	MOV	24(R10),R13
 00100c2c: f9001bed	(928)	MOV	R13,s-48(SP)
 00100c30: f9003beb	(929)	MOV	R11,fmt+8(FP)
 00100c34: 39400161	(929)	MOVBU	0(R11),R1
 00100c38: 93407c2c	(929)	MOVW	R1,R12
 00100c3c: 6b1f003f	(929)	CMPW	$0,R1,
 00100c40: 54000060	(929)	BEQ	,100c4c(BRANCH)
 00100c44: 7100959f	(929)	CMPW	$37,R12,
 00100c48: 54000221	(929)	BNE	,100c8c(BRANCH)
 00100c4c: 9100056b	(946)	ADD	$1,R11,R11
 00100c50: f9400945	(947)	MOV	16(R10),R5
 00100c54: cb050125	(947)	SUB	R5,R9,R5
 00100c58: b9803144	(947)	MOVW	48(R10),R4
 00100c5c: 0b050085	(947)	ADDW	R5,R4,R5
 00100c60: b9003145	(947)	MOVW	R5,48(R10)
 00100c64: f9000949	(948)	MOV	R9,16(R10)
 00100c68: 6b1f019f	(949)	CMPW	$0,R12,
 00100c6c: 540000c1	(949)	BNE	,100c84(BRANCH)
 00100c70: b9803143	(950)	MOVW	48(R10),R3
 00100c74: b9802be4	(950)	MOVW	nfmt-56(SP),R4
 00100c78: 4b040060	(950)	SUBW	R4,R3,R0
 00100c7c: f84607fe	(950)	MOV	(R31)96!,R30
 00100c80: d65f03c0	(950)	RET	,0(R30)
 00100c84: f9000d4d	(951)	MOV	R13,24(R10)
 00100c88: 17ffffaf	(954)	B	,100b44(BRANCH)
 00100c8c: b90047ec	(930)	MOVW	R12,r-28(SP)
 00100c90: 7102019f	(930)	CMPW	$128,R12,
 00100c94: 5400034a	(930)	BGE	,100cfc(BRANCH)
 00100c98: 91000523	(931)	ADD	$1,R9,R3
 00100c9c: eb0d007f	(931)	CMP	R13,R3,
 00100ca0: 540001c9	(931)	BLS	,100cd8(BRANCH)
 00100ca4: aa0a03e0	(931)	MOV	R10,R0
 00100ca8: f9000be9	(931)	MOV	R9,16(R31)
 00100cac: 98022b01	(931)	MOVW	$1,R1
 00100cb0: b9001be1	(931)	MOVW	R1,24(R31)
 00100cb4: 9400003a	(931)	BL	,_fmtflush+0x100d9c(BRANCH)
 00100cb8: b98047ec	(931)	MOVW	r-28(SP),R12
 00100cbc: f9403beb	(931)	MOV	fmt+8(FP),R11
 00100cc0: f94037ea	(931)	MOV	f+0(FP),R10
 00100cc4: aa0003e9	(931)	MOV	R0,R9
 00100cc8: eb1f001f	(931)	CMP	$0,R0,
 00100ccc: 54000120	(931)	BEQ	,100cf0(BRANCH)
 00100cd0: f9400d4d	(931)	MOV	24(R10),R13
 00100cd4: f9001bed	(931)	MOV	R13,s-48(SP)
 00100cd8: aa0903e1	(931)	MOV	R9,R1
 00100cdc: 91000529	(931)	ADD	$1,R9,R9
 00100ce0: f9001fe9	(931)	MOV	R9,t-40(SP)
 00100ce4: 3900002c	(931)	MOVB	R12,0(R1)
 00100ce8: 9100056b	(932)	ADD	$1,R11,R11
 00100cec: 17ffffd1	(929)	B	,100c30(BRANCH)
 00100cf0: 12800000	(931)	MOVW	$-1,R0
 00100cf4: f84607fe	(931)	MOV	(R31)96!,R30
 00100cf8: d65f03c0	(931)	RET	,0(R30)
 00100cfc: 910173e0	(934)	MOV	$rune-4(SP),R0
 00100d00: f9000beb	(934)	MOV	R11,16(R31)
 00100d04: 9400059f	(934)	BL	,chartorune+0x102380(BRANCH)
 00100d08: f9401bed	(934)	MOV	s-48(SP),R13
 00100d0c: f9403beb	(934)	MOV	fmt+8(FP),R11
 00100d10: f94037ea	(934)	MOV	f+0(FP),R10
 00100d14: f9401fe9	(934)	MOV	t-40(SP),R9
 00100d18: 93407c0c	(934)	MOVW	R0,R12
 00100d1c: 8b090003	(935)	ADD	R9,R0,R3
 00100d20: eb0d007f	(935)	CMP	R13,R3,
 00100d24: 540001e9	(935)	BLS	,100d60(BRANCH)
 00100d28: aa0a03e0	(936)	MOV	R10,R0
 00100d2c: f9000be9	(936)	MOV	R9,16(R31)
 00100d30: b9002fec	(936)	MOVW	R12,n-52(SP)
 00100d34: b9001bec	(936)	MOVW	R12,24(R31)
 00100d38: 94000019	(936)	BL	,_fmtflush+0x100d9c(BRANCH)
 00100d3c: b9802fec	(936)	MOVW	n-52(SP),R12
 00100d40: f9403beb	(936)	MOV	fmt+8(FP),R11
 00100d44: f94037ea	(936)	MOV	f+0(FP),R10
 00100d48: aa0003e9	(936)	MOV	R0,R9
 00100d4c: f9001fe0	(937)	MOV	R0,t-40(SP)
 00100d50: eb1f001f	(937)	CMP	$0,R0,
 00100d54: 540001e0	(937)	BEQ	,100d90(BRANCH)
 00100d58: f9400d4d	(938)	MOV	24(R10),R13
 00100d5c: f9001bed	(938)	MOV	R13,s-48(SP)
 00100d60: 93407d82	(942)	MOVW	R12,R2
 00100d64: 5100058c	(942)	SUBW	$1,R12,R12
 00100d68: 6b1f005f	(942)	CMPW	$0,R2,
 00100d6c: 54fff620	(942)	BEQ	,100c30(BRANCH)
 00100d70: aa0903e2	(943)	MOV	R9,R2
 00100d74: 91000529	(943)	ADD	$1,R9,R9
 00100d78: f9001fe9	(943)	MOV	R9,t-40(SP)
 00100d7c: aa0b03e3	(943)	MOV	R11,R3
 00100d80: 9100056b	(943)	ADD	$1,R11,R11
 00100d84: 39800063	(943)	MOVB	0(R3),R3
 00100d88: 39000043	(943)	MOVB	R3,0(R2)
 00100d8c: 17fffff5	(942)	B	,100d60(BRANCH)
 00100d90: 12800000	(940)	MOVW	$-1,R0
 00100d94: f84607fe	(940)	MOV	(R31)96!,R30
 00100d98: d65f03c0	(940)	RET	,0(R30)

 00100d9c:		(961)	TEXT	_fmtflush+0(SB),R0,$8
 00100d9c: f81f0ffe	(961)	MOV	R30,-16(R31)!
 00100da0: f94013ea	(961)	MOV	t+8(FP),R10
 00100da4: aa0003e9	(961)	MOV	R0,R9
 00100da8: 39400002	(963)	MOVBU	0(R0),R2
 00100dac: 6b1f005f	(963)	CMPW	$0,R2,
 00100db0: 54000400	(963)	BEQ	,100e30(BRANCH)
 00100db4: f9400923	(964)	MOV	16(R9),R3
 00100db8: cb030143	(964)	SUB	R3,R10,R3
 00100dbc: 13027c63	(964)	ASRW	$2,R3
 00100dc0: b9803122	(964)	MOVW	48(R9),R2
 00100dc4: 0b030043	(964)	ADDW	R3,R2,R3
 00100dc8: b9003123	(964)	MOVW	R3,48(R9)
 00100dcc: f900092a	(967)	MOV	R10,16(R9)
 00100dd0: f9401123	(968)	MOV	32(R9),R3
 00100dd4: eb1f007f	(968)	CMP	$0,R3,
 00100dd8: 54000120	(968)	BEQ	,100dfc(BRANCH)
 00100ddc: aa0903e0	(968)	MOV	R9,R0
 00100de0: f9000fe9	(968)	MOV	R9,f+0(FP)
 00100de4: f9401124	(968)	MOV	32(R9),R4
 00100de8: d63f0080	(968)	BL	,0(R4)
 00100dec: b9802bea	(968)	MOVW	len+16(FP),R10
 00100df0: f9400fe9	(968)	MOV	f+0(FP),R9
 00100df4: 6b1f001f	(968)	CMPW	$0,R0,
 00100df8: 540000c1	(968)	BNE	,100e10(BRANCH)
 00100dfc: f9400923	(969)	MOV	16(R9),R3
 00100e00: f9000d23	(969)	MOV	R3,24(R9)
 00100e04: d2800000	(970)	MOV	$0,R0
 00100e08: f84107fe	(970)	MOV	(R31)16!,R30
 00100e0c: d65f03c0	(970)	RET	,0(R30)
 00100e10: f9400924	(968)	MOV	16(R9),R4
 00100e14: 8b040143	(968)	ADD	R4,R10,R3
 00100e18: f9400d22	(968)	MOV	24(R9),R2
 00100e1c: eb02007f	(968)	CMP	R2,R3,
 00100e20: 54fffee8	(968)	BHI	,100dfc(BRANCH)
 00100e24: f9400920	(972)	MOV	16(R9),R0
 00100e28: f84107fe	(972)	MOV	(R31)16!,R30
 00100e2c: d65f03c0	(972)	RET	,0(R30)
 00100e30: f9400802	(966)	MOV	16(R0),R2
 00100e34: cb020142	(966)	SUB	R2,R10,R2
 00100e38: b9803001	(966)	MOVW	48(R0),R1
 00100e3c: 0b020022	(966)	ADDW	R2,R1,R2
 00100e40: b9003002	(966)	MOVW	R2,48(R0)
 00100e44: 17ffffe2	(967)	B	,100dcc(BRANCH)

 00100e48:		(980)	TEXT	_fmtpad+0(SB),R0,$56
 00100e48: f81c0ffe	(980)	MOV	R30,-64(R31)!
 00100e4c: aa0003eb	(980)	MOV	R0,R11
 00100e50: f9400809	(985)	MOV	16(R0),R9
 00100e54: f9400c0a	(986)	MOV	24(R0),R10
 00100e58: 2a1f03ec	(987)	MOVW	$0,R12
 00100e5c: b9002fec	(987)	MOVW	R12,i-20(SP)
 00100e60: b98053e3	(987)	MOVW	n+8(FP),R3
 00100e64: 6b03019f	(987)	CMPW	R3,R12,
 00100e68: 5400032a	(987)	BGE	,100ecc(BRANCH)
 00100e6c: 91000525	(988)	ADD	$1,R9,R5
 00100e70: eb0a00bf	(988)	CMP	R10,R5,
 00100e74: 540001a9	(988)	BLS	,100ea8(BRANCH)
 00100e78: aa0b03e0	(988)	MOV	R11,R0
 00100e7c: f90027eb	(988)	MOV	R11,f+0(FP)
 00100e80: f9000be9	(988)	MOV	R9,16(R31)
 00100e84: 98021c43	(988)	MOVW	$1,R3
 00100e88: b9001be3	(988)	MOVW	R3,24(R31)
 00100e8c: 97ffffc4	(988)	BL	,_fmtflush+0x100d9c(BRANCH)
 00100e90: b9802fec	(988)	MOVW	i-20(SP),R12
 00100e94: f94027eb	(988)	MOV	f+0(FP),R11
 00100e98: aa0003e9	(988)	MOV	R0,R9
 00100e9c: eb1f001f	(988)	CMP	$0,R0,
 00100ea0: 54000100	(988)	BEQ	,100ec0(BRANCH)
 00100ea4: f9400d6a	(988)	MOV	24(R11),R10
 00100ea8: aa0903e3	(988)	MOV	R9,R3
 00100eac: 91000529	(988)	ADD	$1,R9,R9
 00100eb0: 18021b04	(988)	MOV	$32,R4
 00100eb4: 39000064	(988)	MOVB	R4,0(R3)
 00100eb8: 1100058c	(987)	ADDW	$1,R12,R12
 00100ebc: 17ffffe8	(987)	B	,100e5c(BRANCH)
 00100ec0: 12800000	(988)	MOVW	$-1,R0
 00100ec4: f84407fe	(988)	MOV	(R31)64!,R30
 00100ec8: d65f03c0	(988)	RET	,0(R30)
 00100ecc: f9400961	(989)	MOV	16(R11),R1
 00100ed0: cb010121	(989)	SUB	R1,R9,R1
 00100ed4: b9803165	(989)	MOVW	48(R11),R5
 00100ed8: 0b0100a1	(989)	ADDW	R1,R5,R1
 00100edc: b9003161	(989)	MOVW	R1,48(R11)
 00100ee0: f9000969	(990)	MOV	R9,16(R11)
 00100ee4: 2a1f03e0	(991)	MOVW	$0,R0
 00100ee8: f84407fe	(991)	MOV	(R31)64!,R30
 00100eec: d65f03c0	(991)	RET	,0(R30)

 00100ef0:		(995)	TEXT	_rfmtpad+0(SB),R0,$56
 00100ef0: f81c0ffe	(995)	MOV	R30,-64(R31)!
 00100ef4: aa0003eb	(995)	MOV	R0,R11
 00100ef8: f9400809	(1000)	MOV	16(R0),R9
 00100efc: f9400c0a	(1001)	MOV	24(R0),R10
 00100f00: 2a1f03ec	(1002)	MOVW	$0,R12
 00100f04: b9002fec	(1002)	MOVW	R12,i-20(SP)
 00100f08: b98053e3	(1002)	MOVW	n+8(FP),R3
 00100f0c: 6b03019f	(1002)	CMPW	R3,R12,
 00100f10: 5400032a	(1002)	BGE	,100f74(BRANCH)
 00100f14: 91001125	(1003)	ADD	$4,R9,R5
 00100f18: eb0a00bf	(1003)	CMP	R10,R5,
 00100f1c: 540001a9	(1003)	BLS	,100f50(BRANCH)
 00100f20: aa0b03e0	(1003)	MOV	R11,R0
 00100f24: f90027eb	(1003)	MOV	R11,f+0(FP)
 00100f28: f9000be9	(1003)	MOV	R9,16(R31)
 00100f2c: 980217e3	(1003)	MOVW	$4,R3
 00100f30: b9001be3	(1003)	MOVW	R3,24(R31)
 00100f34: 97ffff9a	(1003)	BL	,_fmtflush+0x100d9c(BRANCH)
 00100f38: b9802fec	(1003)	MOVW	i-20(SP),R12
 00100f3c: f94027eb	(1003)	MOV	f+0(FP),R11
 00100f40: aa0003e9	(1003)	MOV	R0,R9
 00100f44: eb1f001f	(1003)	CMP	$0,R0,
 00100f48: 54000100	(1003)	BEQ	,100f68(BRANCH)
 00100f4c: f9400d6a	(1003)	MOV	24(R11),R10
 00100f50: aa0903e3	(1003)	MOV	R9,R3
 00100f54: 91001129	(1003)	ADD	$4,R9,R9
 00100f58: 180215c4	(1003)	MOVWU	$32,R4
 00100f5c: b9000064	(1003)	MOVWU	R4,0(R3)
 00100f60: 1100058c	(1002)	ADDW	$1,R12,R12
 00100f64: 17ffffe8	(1002)	B	,100f04(BRANCH)
 00100f68: 12800000	(1003)	MOVW	$-1,R0
 00100f6c: f84407fe	(1003)	MOV	(R31)64!,R30
 00100f70: d65f03c0	(1003)	RET	,0(R30)
 00100f74: f9400961	(1004)	MOV	16(R11),R1
 00100f78: cb010121	(1004)	SUB	R1,R9,R1
 00100f7c: 13027c21	(1004)	ASRW	$2,R1
 00100f80: b9803165	(1004)	MOVW	48(R11),R5
 00100f84: 0b0100a1	(1004)	ADDW	R1,R5,R1
 00100f88: b9003161	(1004)	MOVW	R1,48(R11)
 00100f8c: f9000969	(1005)	MOV	R9,16(R11)
 00100f90: 2a1f03e0	(1006)	MOVW	$0,R0
 00100f94: f84407fe	(1006)	MOV	(R31)64!,R30
 00100f98: d65f03c0	(1006)	RET	,0(R30)

 00100f9c:		(1010)	TEXT	_fmtcpy+0(SB),R0,$104
 00100f9c: f8190ffe	(1010)	MOV	R30,-112(R31)!
 00100fa0: f94043e9	(1010)	MOV	vm+8(FP),R9
 00100fa4: b98093ea	(1010)	MOVW	sz+24(FP),R10
 00100fa8: aa0003ec	(1010)	MOV	R0,R12
 00100fac: f90023e9	(1018)	MOV	R9,m-48(SP)
 00100fb0: 8b090145	(1018)	ADD	R9,R10,R5
 00100fb4: f9001fe5	(1018)	MOV	R5,me-56(SP)
 00100fb8: b9804403	(1019)	MOVW	68(R0),R3
 00100fbc: b9002fe3	(1019)	MOVW	R3,w-68(SP)
 00100fc0: b9404c03	(1020)	MOVWU	76(R0),R3
 00100fc4: b90037e3	(1020)	MOVW	R3,fl-60(SP)
 00100fc8: b94037e3	(1021)	MOVWU	fl-60(SP),R3
 00100fcc: 121e0063	(1021)	ANDW	$4,R3
 00100fd0: 6b1f007f	(1021)	CMPW	$0,R3,
 00100fd4: 540000a0	(1021)	BEQ	,100fe8(BRANCH)
 00100fd8: b9804985	(1021)	MOVW	72(R12),R5
 00100fdc: b9808be4	(1021)	MOVW	n+16(FP),R4
 00100fe0: 6b05009f	(1021)	CMPW	R5,R4,
 00100fe4: 54001f4c	(1021)	BGT	,1013cc(BRANCH)
 00100fe8: 39400181	(1023)	MOVBU	0(R12),R1
 00100fec: 6b1f003f	(1023)	CMPW	$0,R1,
 00100ff0: 54000de0	(1023)	BEQ	,1011ac(BRANCH)
 00100ff4: b94037e5	(1024)	MOVWU	fl-60(SP),R5
 00100ff8: 121f00a5	(1024)	ANDW	$2,R5
 00100ffc: 6b1f00bf	(1024)	CMPW	$0,R5,
 00101000: 54000181	(1024)	BNE	,101030(BRANCH)
 00101004: aa0c03e0	(1024)	MOV	R12,R0
 00101008: f9003fec	(1024)	MOV	R12,f+0(FP)
 0010100c: b9802fe4	(1024)	MOVW	w-68(SP),R4
 00101010: b9808be3	(1024)	MOVW	n+16(FP),R3
 00101014: 4b030084	(1024)	SUBW	R3,R4
 00101018: b90013e4	(1024)	MOVW	R4,16(R31)
 0010101c: 97ffffb5	(1024)	BL	,_rfmtpad+0x100ef0(BRANCH)
 00101020: f9403fec	(1024)	MOV	f+0(FP),R12
 00101024: f94023e9	(1024)	MOV	m-48(SP),R9
 00101028: 6b1f001f	(1024)	CMPW	$0,R0,
 0010102c: 54000bab	(1024)	BLT	,1011a0(BRANCH)
 00101030: f940098a	(1026)	MOV	16(R12),R10
 00101034: f90037ea	(1026)	MOV	R10,rt-8(SP)
 00101038: f9003fec	(1027)	MOV	R12,f+0(FP)
 0010103c: f9400d8d	(1027)	MOV	24(R12),R13
 00101040: f90033ed	(1027)	MOV	R13,rs-16(SP)
 00101044: b9808beb	(1028)	MOVW	n+16(FP),R11
 00101048: b90033eb	(1028)	MOVW	R11,nc-64(SP)
 0010104c: 6b1f017f	(1028)	CMPW	$0,R11,
 00101050: 5400060d	(1028)	BLE	,101110(BRANCH)
 00101054: 39400122	(1029)	MOVBU	0(R9),R2
 00101058: b9005fe2	(1029)	MOVWU	R2,r-20(SP)
 0010105c: b9405fe4	(1030)	MOVWU	r-20(SP),R4
 00101060: 7102009f	(1030)	CMPW	$128,R4,
 00101064: 540003a2	(1030)	BHS	,1010d8(BRANCH)
 00101068: 91000529	(1031)	ADD	$1,R9,R9
 0010106c: f90023e9	(1031)	MOV	R9,m-48(SP)
 00101070: 91001145	(1036)	ADD	$4,R10,R5
 00101074: eb0d00bf	(1036)	CMP	R13,R5,
 00101078: 540001c9	(1036)	BLS	,1010b0(BRANCH)
 0010107c: aa0c03e0	(1036)	MOV	R12,R0
 00101080: f9000bea	(1036)	MOV	R10,16(R31)
 00101084: 98020d23	(1036)	MOVW	$4,R3
 00101088: b9001be3	(1036)	MOVW	R3,24(R31)
 0010108c: 97ffff44	(1036)	BL	,_fmtflush+0x100d9c(BRANCH)
 00101090: b98033eb	(1036)	MOVW	nc-64(SP),R11
 00101094: f9403fec	(1036)	MOV	f+0(FP),R12
 00101098: f94023e9	(1036)	MOV	m-48(SP),R9
 0010109c: aa0003ea	(1036)	MOV	R0,R10
 001010a0: eb1f001f	(1036)	CMP	$0,R0,
 001010a4: 54000140	(1036)	BEQ	,1010cc(BRANCH)
 001010a8: f9400d8d	(1036)	MOV	24(R12),R13
 001010ac: f90033ed	(1036)	MOV	R13,rs-16(SP)
 001010b0: aa0a03e3	(1036)	MOV	R10,R3
 001010b4: 9100114a	(1036)	ADD	$4,R10,R10
 001010b8: f90037ea	(1036)	MOV	R10,rt-8(SP)
 001010bc: b9405fe4	(1036)	MOVWU	r-20(SP),R4
 001010c0: b9000064	(1036)	MOVWU	R4,0(R3)
 001010c4: 5100056b	(1028)	SUBW	$1,R11,R11
 001010c8: 17ffffe0	(1028)	B	,101048(BRANCH)
 001010cc: 12800000	(1036)	MOVW	$-1,R0
 001010d0: f84707fe	(1036)	MOV	(R31)112!,R30
 001010d4: d65f03c0	(1036)	RET	,0(R30)
 001010d8: f9401fe4	(1032)	MOV	me-56(SP),R4
 001010dc: cb090084	(1032)	SUB	R9,R4
 001010e0: 7100109f	(1032)	CMPW	$4,R4,
 001010e4: 5400048a	(1032)	BGE	,101174(BRANCH)
 001010e8: aa0903e0	(1032)	MOV	R9,R0
 001010ec: f9401fe3	(1032)	MOV	me-56(SP),R3
 001010f0: cb090063	(1032)	SUB	R9,R3
 001010f4: b90013e3	(1032)	MOVW	R3,16(R31)
 001010f8: 940005a4	(1032)	BL	,fullrune+0x102788(BRANCH)
 001010fc: f9403fec	(1032)	MOV	f+0(FP),R12
 00101100: f94037ea	(1032)	MOV	rt-8(SP),R10
 00101104: f94023e9	(1032)	MOV	m-48(SP),R9
 00101108: 6b1f001f	(1032)	CMPW	$0,R0,
 0010110c: 54000341	(1032)	BNE	,101174(BRANCH)
 00101110: f9400982	(1038)	MOV	16(R12),R2
 00101114: cb020142	(1038)	SUB	R2,R10,R2
 00101118: 13027c42	(1038)	ASRW	$2,R2
 0010111c: b9803181	(1038)	MOVW	48(R12),R1
 00101120: 0b020022	(1038)	ADDW	R2,R1,R2
 00101124: b9003182	(1038)	MOVW	R2,48(R12)
 00101128: f900098a	(1039)	MOV	R10,16(R12)
 0010112c: b94037e3	(1040)	MOVWU	fl-60(SP),R3
 00101130: 121f0063	(1040)	ANDW	$2,R3
 00101134: 6b1f007f	(1040)	CMPW	$0,R3,
 00101138: 54000120	(1040)	BEQ	,10115c(BRANCH)
 0010113c: aa0c03e0	(1040)	MOV	R12,R0
 00101140: b9802fe2	(1040)	MOVW	w-68(SP),R2
 00101144: b9808be6	(1040)	MOVW	n+16(FP),R6
 00101148: 4b060042	(1040)	SUBW	R6,R2
 0010114c: b90013e2	(1040)	MOVW	R2,16(R31)
 00101150: 97ffff68	(1040)	BL	,_rfmtpad+0x100ef0(BRANCH)
 00101154: 6b1f001f	(1040)	CMPW	$0,R0,
 00101158: 5400008b	(1040)	BLT	,101168(BRANCH)
 0010115c: 2a1f03e0	(1062)	MOVW	$0,R0
 00101160: f84707fe	(1062)	MOV	(R31)112!,R30
 00101164: d65f03c0	(1062)	RET	,0(R30)
 00101168: 12800000	(1041)	MOVW	$-1,R0
 0010116c: f84707fe	(1041)	MOV	(R31)112!,R30
 00101170: d65f03c0	(1041)	RET	,0(R30)
 00101174: 910173e0	(1033)	MOV	$r-20(SP),R0
 00101178: f9000be9	(1033)	MOV	R9,16(R31)
 0010117c: 94000481	(1033)	BL	,chartorune+0x102380(BRANCH)
 00101180: f94023e9	(1033)	MOV	m-48(SP),R9
 00101184: f94033ed	(1033)	MOV	rs-16(SP),R13
 00101188: b98033eb	(1033)	MOVW	nc-64(SP),R11
 0010118c: f9403fec	(1033)	MOV	f+0(FP),R12
 00101190: f94037ea	(1033)	MOV	rt-8(SP),R10
 00101194: 8b000129	(1033)	ADD	R0,R9,R9
 00101198: f90023e9	(1033)	MOV	R9,m-48(SP)
 0010119c: 17ffffb5	(1036)	B	,101070(BRANCH)
 001011a0: 12800000	(1025)	MOVW	$-1,R0
 001011a4: f84707fe	(1025)	MOV	(R31)112!,R30
 001011a8: d65f03c0	(1025)	RET	,0(R30)
 001011ac: b94037e3	(1043)	MOVWU	fl-60(SP),R3
 001011b0: 121f0063	(1043)	ANDW	$2,R3
 001011b4: 6b1f007f	(1043)	CMPW	$0,R3,
 001011b8: 54000181	(1043)	BNE	,1011e8(BRANCH)
 001011bc: aa0c03e0	(1043)	MOV	R12,R0
 001011c0: f9003fec	(1043)	MOV	R12,f+0(FP)
 001011c4: b9802fe2	(1043)	MOVW	w-68(SP),R2
 001011c8: b9808be6	(1043)	MOVW	n+16(FP),R6
 001011cc: 4b060042	(1043)	SUBW	R6,R2
 001011d0: b90013e2	(1043)	MOVW	R2,16(R31)
 001011d4: 97ffff1d	(1043)	BL	,_fmtpad+0x100e48(BRANCH)
 001011d8: f9403fec	(1043)	MOV	f+0(FP),R12
 001011dc: f94023e9	(1043)	MOV	m-48(SP),R9
 001011e0: 6b1f001f	(1043)	CMPW	$0,R0,
 001011e4: 54000eeb	(1043)	BLT	,1013c0(BRANCH)
 001011e8: f940098a	(1045)	MOV	16(R12),R10
 001011ec: f9002bea	(1045)	MOV	R10,t-32(SP)
 001011f0: f9003fec	(1046)	MOV	R12,f+0(FP)
 001011f4: f9400d83	(1046)	MOV	24(R12),R3
 001011f8: f90027e3	(1046)	MOV	R3,s-40(SP)
 001011fc: b9808be3	(1047)	MOVW	n+16(FP),R3
 00101200: b90033e3	(1047)	MOVW	R3,nc-64(SP)
 00101204: b98033e3	(1047)	MOVW	nc-64(SP),R3
 00101208: 6b1f007f	(1047)	CMPW	$0,R3,
 0010120c: 540009ed	(1047)	BLE	,101348(BRANCH)
 00101210: 39400125	(1048)	MOVBU	0(R9),R5
 00101214: b9005fe5	(1048)	MOVWU	R5,r-20(SP)
 00101218: b9405fe2	(1049)	MOVWU	r-20(SP),R2
 0010121c: 7102005f	(1049)	CMPW	$128,R2,
 00101220: 54000782	(1049)	BHS	,101310(BRANCH)
 00101224: 91000529	(1050)	ADD	$1,R9,R9
 00101228: f90023e9	(1050)	MOV	R9,m-48(SP)
 0010122c: 91001143	(1055)	ADD	$4,R10,R3
 00101230: f94027e5	(1055)	MOV	s-40(SP),R5
 00101234: eb05007f	(1055)	CMP	R5,R3,
 00101238: 54000169	(1055)	BLS	,101264(BRANCH)
 0010123c: b9805fe0	(1055)	MOVW	r-20(SP),R0
 00101240: 9400051e	(1055)	BL	,runelen+0x1026b8(BRANCH)
 00101244: f9403fec	(1055)	MOV	f+0(FP),R12
 00101248: f9402bea	(1055)	MOV	t-32(SP),R10
 0010124c: f94023e9	(1055)	MOV	m-48(SP),R9
 00101250: 93407c0b	(1055)	MOVW	R0,R11
 00101254: 8b0a0002	(1055)	ADD	R10,R0,R2
 00101258: f94027e1	(1055)	MOV	s-40(SP),R1
 0010125c: eb01005f	(1055)	CMP	R1,R2,
 00101260: 540003a8	(1055)	BHI	,1012d4(BRANCH)
 00101264: b9405fe3	(1055)	MOVWU	r-20(SP),R3
 00101268: 7102007f	(1055)	CMPW	$128,R3,
 0010126c: 54000142	(1055)	BHS	,101294(BRANCH)
 00101270: aa0a03e5	(1055)	MOV	R10,R5
 00101274: 9100054a	(1055)	ADD	$1,R10,R10
 00101278: f9002bea	(1055)	MOV	R10,t-32(SP)
 0010127c: b9405fe6	(1055)	MOVWU	r-20(SP),R6
 00101280: 390000a6	(1055)	MOVB	R6,0(R5)
 00101284: b98033e5	(1047)	MOVW	nc-64(SP),R5
 00101288: 510004a5	(1047)	SUBW	$1,R5
 0010128c: b90033e5	(1047)	MOVW	R5,nc-64(SP)
 00101290: 17ffffdd	(1047)	B	,101204(BRANCH)
 00101294: b9405fe5	(1055)	MOVWU	r-20(SP),R5
 00101298: b9002be5	(1055)	MOVWU	R5,_rune-72(SP)
 0010129c: aa0a03e0	(1055)	MOV	R10,R0
 001012a0: f9002bea	(1055)	MOV	R10,t-32(SP)
 001012a4: 9100a3e5	(1055)	MOV	$_rune-72(SP),R5
 001012a8: f9000be5	(1055)	MOV	R5,16(R31)
 001012ac: 940004ac	(1055)	BL	,runetochar+0x10255c(BRANCH)
 001012b0: f9402bea	(1055)	MOV	t-32(SP),R10
 001012b4: f9403fec	(1055)	MOV	f+0(FP),R12
 001012b8: f94023e9	(1055)	MOV	m-48(SP),R9
 001012bc: 8b00014a	(1055)	ADD	R0,R10,R10
 001012c0: f9002bea	(1055)	MOV	R10,t-32(SP)
 001012c4: b98033e5	(1047)	MOVW	nc-64(SP),R5
 001012c8: 510004a5	(1047)	SUBW	$1,R5
 001012cc: b90033e5	(1047)	MOVW	R5,nc-64(SP)
 001012d0: 17ffffcd	(1047)	B	,101204(BRANCH)
 001012d4: aa0c03e0	(1055)	MOV	R12,R0
 001012d8: f9000bea	(1055)	MOV	R10,16(R31)
 001012dc: b9001beb	(1055)	MOVW	R11,24(R31)
 001012e0: 97fffeaf	(1055)	BL	,_fmtflush+0x100d9c(BRANCH)
 001012e4: f9403fec	(1055)	MOV	f+0(FP),R12
 001012e8: f94023e9	(1055)	MOV	m-48(SP),R9
 001012ec: aa0003ea	(1055)	MOV	R0,R10
 001012f0: eb1f001f	(1055)	CMP	$0,R0,
 001012f4: 54000080	(1055)	BEQ	,101304(BRANCH)
 001012f8: f9400d83	(1055)	MOV	24(R12),R3
 001012fc: f90027e3	(1055)	MOV	R3,s-40(SP)
 00101300: 17ffffd9	(1055)	B	,101264(BRANCH)
 00101304: 12800000	(1055)	MOVW	$-1,R0
 00101308: f84707fe	(1055)	MOV	(R31)112!,R30
 0010130c: d65f03c0	(1055)	RET	,0(R30)
 00101310: f9401fe2	(1051)	MOV	me-56(SP),R2
 00101314: cb090042	(1051)	SUB	R9,R2
 00101318: 7100105f	(1051)	CMPW	$4,R2,
 0010131c: 5400040a	(1051)	BGE	,10139c(BRANCH)
 00101320: aa0903e0	(1051)	MOV	R9,R0
 00101324: f9401fe1	(1051)	MOV	me-56(SP),R1
 00101328: cb090021	(1051)	SUB	R9,R1
 0010132c: b90013e1	(1051)	MOVW	R1,16(R31)
 00101330: 94000516	(1051)	BL	,fullrune+0x102788(BRANCH)
 00101334: f9403fec	(1051)	MOV	f+0(FP),R12
 00101338: f9402bea	(1051)	MOV	t-32(SP),R10
 0010133c: f94023e9	(1051)	MOV	m-48(SP),R9
 00101340: 6b1f001f	(1051)	CMPW	$0,R0,
 00101344: 540002c1	(1051)	BNE	,10139c(BRANCH)
 00101348: f9400983	(1057)	MOV	16(R12),R3
 0010134c: cb030143	(1057)	SUB	R3,R10,R3
 00101350: b9803182	(1057)	MOVW	48(R12),R2
 00101354: 0b030043	(1057)	ADDW	R3,R2,R3
 00101358: b9003183	(1057)	MOVW	R3,48(R12)
 0010135c: f900098a	(1058)	MOV	R10,16(R12)
 00101360: b94037e4	(1059)	MOVWU	fl-60(SP),R4
 00101364: 121f0084	(1059)	ANDW	$2,R4
 00101368: 6b1f009f	(1059)	CMPW	$0,R4,
 0010136c: 54ffef80	(1059)	BEQ	,10115c(BRANCH)
 00101370: aa0c03e0	(1059)	MOV	R12,R0
 00101374: b9802fe3	(1059)	MOVW	w-68(SP),R3
 00101378: b9808be2	(1059)	MOVW	n+16(FP),R2
 0010137c: 4b020063	(1059)	SUBW	R2,R3
 00101380: b90013e3	(1059)	MOVW	R3,16(R31)
 00101384: 97fffeb1	(1059)	BL	,_fmtpad+0x100e48(BRANCH)
 00101388: 6b1f001f	(1059)	CMPW	$0,R0,
 0010138c: 54ffee8a	(1059)	BGE	,10115c(BRANCH)
 00101390: 12800000	(1060)	MOVW	$-1,R0
 00101394: f84707fe	(1060)	MOV	(R31)112!,R30
 00101398: d65f03c0	(1060)	RET	,0(R30)
 0010139c: 910173e0	(1052)	MOV	$r-20(SP),R0
 001013a0: f9000be9	(1052)	MOV	R9,16(R31)
 001013a4: 940003f7	(1052)	BL	,chartorune+0x102380(BRANCH)
 001013a8: f94023e9	(1052)	MOV	m-48(SP),R9
 001013ac: f9403fec	(1052)	MOV	f+0(FP),R12
 001013b0: f9402bea	(1052)	MOV	t-32(SP),R10
 001013b4: 8b000129	(1052)	ADD	R0,R9,R9
 001013b8: f90023e9	(1052)	MOV	R9,m-48(SP)
 001013bc: 17ffff9c	(1055)	B	,10122c(BRANCH)
 001013c0: 12800000	(1044)	MOVW	$-1,R0
 001013c4: f84707fe	(1044)	MOV	(R31)112!,R30
 001013c8: d65f03c0	(1044)	RET	,0(R30)
 001013cc: b9804981	(1022)	MOVW	72(R12),R1
 001013d0: b9008be1	(1022)	MOVW	R1,n+16(FP)
 001013d4: 17ffff05	(1023)	B	,100fe8(BRANCH)

 001013d8:		(1066)	TEXT	_fmtrcpy+0(SB),R0,$104
 001013d8: f8190ffe	(1066)	MOV	R30,-112(R31)!
 001013dc: f94043eb	(1066)	MOV	vm+8(FP),R11
 001013e0: aa0003ea	(1066)	MOV	R0,R10
 001013e4: f90033eb	(1073)	MOV	R11,m-16(SP)
 001013e8: b9804402	(1074)	MOVW	68(R0),R2
 001013ec: b90033e2	(1074)	MOVW	R2,w-64(SP)
 001013f0: b9404c02	(1075)	MOVWU	76(R0),R2
 001013f4: b90037e2	(1075)	MOVW	R2,fl-60(SP)
 001013f8: b94037e2	(1076)	MOVWU	fl-60(SP),R2
 001013fc: 121e0042	(1076)	ANDW	$4,R2
 00101400: 6b1f005f	(1076)	CMPW	$0,R2,
 00101404: 540000a0	(1076)	BEQ	,101418(BRANCH)
 00101408: b9804944	(1076)	MOVW	72(R10),R4
 0010140c: b9808be3	(1076)	MOVW	n+16(FP),R3
 00101410: 6b04007f	(1076)	CMPW	R4,R3,
 00101414: 540017ac	(1076)	BGT	,101708(BRANCH)
 00101418: 39400145	(1078)	MOVBU	0(R10),R5
 0010141c: 6b1f00bf	(1078)	CMPW	$0,R5,
 00101420: 540009c0	(1078)	BEQ	,101558(BRANCH)
 00101424: b94037e4	(1079)	MOVWU	fl-60(SP),R4
 00101428: 121f0084	(1079)	ANDW	$2,R4
 0010142c: 6b1f009f	(1079)	CMPW	$0,R4,
 00101430: 54000181	(1079)	BNE	,101460(BRANCH)
 00101434: aa0a03e0	(1079)	MOV	R10,R0
 00101438: f9003fea	(1079)	MOV	R10,f+0(FP)
 0010143c: b98033e3	(1079)	MOVW	w-64(SP),R3
 00101440: b9808be2	(1079)	MOVW	n+16(FP),R2
 00101444: 4b020063	(1079)	SUBW	R2,R3
 00101448: b90013e3	(1079)	MOVW	R3,16(R31)
 0010144c: 97fffea9	(1079)	BL	,_rfmtpad+0x100ef0(BRANCH)
 00101450: f94033eb	(1079)	MOV	m-16(SP),R11
 00101454: f9403fea	(1079)	MOV	f+0(FP),R10
 00101458: 6b1f001f	(1079)	CMPW	$0,R0,
 0010145c: 5400078b	(1079)	BLT	,10154c(BRANCH)
 00101460: f9400949	(1081)	MOV	16(R10),R9
 00101464: f9400d4c	(1082)	MOV	24(R10),R12
 00101468: b9808be4	(1083)	MOVW	n+16(FP),R4
 0010146c: d37ef484	(1083)	LSL	$2,R4
 00101470: 8b0b0084	(1083)	ADD	R11,R4
 00101474: f9002fe4	(1083)	MOV	R4,me-24(SP)
 00101478: f90033eb	(1083)	MOV	R11,m-16(SP)
 0010147c: f9402fe2	(1083)	MOV	me-24(SP),R2
 00101480: eb02017f	(1083)	CMP	R2,R11,
 00101484: 54000322	(1083)	BHS	,1014e8(BRANCH)
 00101488: 91001124	(1084)	ADD	$4,R9,R4
 0010148c: eb0c009f	(1084)	CMP	R12,R4,
 00101490: 540001a9	(1084)	BLS	,1014c4(BRANCH)
 00101494: aa0a03e0	(1084)	MOV	R10,R0
 00101498: f9003fea	(1084)	MOV	R10,f+0(FP)
 0010149c: f9000be9	(1084)	MOV	R9,16(R31)
 001014a0: 9801ec42	(1084)	MOVW	$4,R2
 001014a4: b9001be2	(1084)	MOVW	R2,24(R31)
 001014a8: 97fffe3d	(1084)	BL	,_fmtflush+0x100d9c(BRANCH)
 001014ac: f94033eb	(1084)	MOV	m-16(SP),R11
 001014b0: f9403fea	(1084)	MOV	f+0(FP),R10
 001014b4: aa0003e9	(1084)	MOV	R0,R9
 001014b8: eb1f001f	(1084)	CMP	$0,R0,
 001014bc: 54000100	(1084)	BEQ	,1014dc(BRANCH)
 001014c0: f9400d4c	(1084)	MOV	24(R10),R12
 001014c4: aa0903e2	(1084)	MOV	R9,R2
 001014c8: 91001129	(1084)	ADD	$4,R9,R9
 001014cc: b9400163	(1084)	MOVWU	0(R11),R3
 001014d0: b9000043	(1084)	MOVWU	R3,0(R2)
 001014d4: 9100116b	(1083)	ADD	$4,R11,R11
 001014d8: 17ffffe8	(1083)	B	,101478(BRANCH)
 001014dc: 12800000	(1084)	MOVW	$-1,R0
 001014e0: f84707fe	(1084)	MOV	(R31)112!,R30
 001014e4: d65f03c0	(1084)	RET	,0(R30)
 001014e8: f9400944	(1085)	MOV	16(R10),R4
 001014ec: cb040124	(1085)	SUB	R4,R9,R4
 001014f0: 13027c84	(1085)	ASRW	$2,R4
 001014f4: b9803143	(1085)	MOVW	48(R10),R3
 001014f8: 0b040064	(1085)	ADDW	R4,R3,R4
 001014fc: b9003144	(1085)	MOVW	R4,48(R10)
 00101500: f9000949	(1086)	MOV	R9,16(R10)
 00101504: b94037e5	(1087)	MOVWU	fl-60(SP),R5
 00101508: 121f00a5	(1087)	ANDW	$2,R5
 0010150c: 6b1f00bf	(1087)	CMPW	$0,R5,
 00101510: 54000120	(1087)	BEQ	,101534(BRANCH)
 00101514: aa0a03e0	(1087)	MOV	R10,R0
 00101518: b98033e4	(1087)	MOVW	w-64(SP),R4
 0010151c: b9808be3	(1087)	MOVW	n+16(FP),R3
 00101520: 4b030084	(1087)	SUBW	R3,R4
 00101524: b90013e4	(1087)	MOVW	R4,16(R31)
 00101528: 97fffe72	(1087)	BL	,_rfmtpad+0x100ef0(BRANCH)
 0010152c: 6b1f001f	(1087)	CMPW	$0,R0,
 00101530: 5400008b	(1087)	BLT	,101540(BRANCH)
 00101534: 2a1f03e0	(1103)	MOVW	$0,R0
 00101538: f84707fe	(1103)	MOV	(R31)112!,R30
 0010153c: d65f03c0	(1103)	RET	,0(R30)
 00101540: 12800000	(1088)	MOVW	$-1,R0
 00101544: f84707fe	(1088)	MOV	(R31)112!,R30
 00101548: d65f03c0	(1088)	RET	,0(R30)
 0010154c: 12800000	(1080)	MOVW	$-1,R0
 00101550: f84707fe	(1080)	MOV	(R31)112!,R30
 00101554: d65f03c0	(1080)	RET	,0(R30)
 00101558: b94037e5	(1090)	MOVWU	fl-60(SP),R5
 0010155c: 121f00a5	(1090)	ANDW	$2,R5
 00101560: 6b1f00bf	(1090)	CMPW	$0,R5,
 00101564: 54000181	(1090)	BNE	,101594(BRANCH)
 00101568: aa0a03e0	(1090)	MOV	R10,R0
 0010156c: f9003fea	(1090)	MOV	R10,f+0(FP)
 00101570: b98033e4	(1090)	MOVW	w-64(SP),R4
 00101574: b9808be3	(1090)	MOVW	n+16(FP),R3
 00101578: 4b030084	(1090)	SUBW	R3,R4
 0010157c: b90013e4	(1090)	MOVW	R4,16(R31)
 00101580: 97fffe32	(1090)	BL	,_fmtpad+0x100e48(BRANCH)
 00101584: f94033eb	(1090)	MOV	m-16(SP),R11
 00101588: f9403fea	(1090)	MOV	f+0(FP),R10
 0010158c: 6b1f001f	(1090)	CMPW	$0,R0,
 00101590: 54000b6b	(1090)	BLT	,1016fc(BRANCH)
 00101594: f9400949	(1092)	MOV	16(R10),R9
 00101598: f9003fea	(1093)	MOV	R10,f+0(FP)
 0010159c: f9400d4e	(1093)	MOV	24(R10),R14
 001015a0: b9808be5	(1094)	MOVW	n+16(FP),R5
 001015a4: d37ef4a5	(1094)	LSL	$2,R5
 001015a8: 8b0b00a5	(1094)	ADD	R11,R5
 001015ac: f9002fe5	(1094)	MOV	R5,me-24(SP)
 001015b0: f9402fe3	(1094)	MOV	me-24(SP),R3
 001015b4: eb03017f	(1094)	CMP	R3,R11,
 001015b8: 54000782	(1094)	BHS	,1016a8(BRANCH)
 001015bc: f90033eb	(1095)	MOV	R11,m-16(SP)
 001015c0: b9400165	(1095)	MOVWU	0(R11),R5
 001015c4: 2a0503ec	(1095)	MOVWU	R5,R12
 001015c8: f90023e9	(1096)	MOV	R9,t-48(SP)
 001015cc: 91001125	(1096)	ADD	$4,R9,R5
 001015d0: f9001fee	(1096)	MOV	R14,s-56(SP)
 001015d4: eb0e00bf	(1096)	CMP	R14,R5,
 001015d8: 540001a9	(1096)	BLS	,10160c(BRANCH)
 001015dc: 93407d80	(1096)	MOVW	R12,R0
 001015e0: b9006fec	(1096)	MOVW	R12,r-4(SP)
 001015e4: 94000435	(1096)	BL	,runelen+0x1026b8(BRANCH)
 001015e8: f9401fee	(1096)	MOV	s-56(SP),R14
 001015ec: b9406fec	(1096)	MOVWU	r-4(SP),R12
 001015f0: f94033eb	(1096)	MOV	m-16(SP),R11
 001015f4: f9403fea	(1096)	MOV	f+0(FP),R10
 001015f8: f94023e9	(1096)	MOV	t-48(SP),R9
 001015fc: 93407c0d	(1096)	MOVW	R0,R13
 00101600: 8b090004	(1096)	ADD	R9,R0,R4
 00101604: eb0e009f	(1096)	CMP	R14,R4,
 00101608: 54000308	(1096)	BHI	,101668(BRANCH)
 0010160c: 2a0c03e5	(1096)	MOVWU	R12,R5
 00101610: 710200bf	(1096)	CMPW	$128,R5,
 00101614: 540000e2	(1096)	BHS	,101630(BRANCH)
 00101618: aa0903e2	(1096)	MOV	R9,R2
 0010161c: 91000529	(1096)	ADD	$1,R9,R9
 00101620: 2a0c03e3	(1096)	MOVWU	R12,R3
 00101624: 39000043	(1096)	MOVB	R3,0(R2)
 00101628: 9100116b	(1094)	ADD	$4,R11,R11
 0010162c: 17ffffe1	(1094)	B	,1015b0(BRANCH)
 00101630: 2a0c03e2	(1096)	MOVWU	R12,R2
 00101634: b9002fe2	(1096)	MOVWU	R2,_rune-68(SP)
 00101638: aa0903e0	(1096)	MOV	R9,R0
 0010163c: f90023e9	(1096)	MOV	R9,t-48(SP)
 00101640: 9100b3e2	(1096)	MOV	$_rune-68(SP),R2
 00101644: f9000be2	(1096)	MOV	R2,16(R31)
 00101648: 940003c5	(1096)	BL	,runetochar+0x10255c(BRANCH)
 0010164c: f9401fee	(1096)	MOV	s-56(SP),R14
 00101650: f94023e9	(1096)	MOV	t-48(SP),R9
 00101654: f94033eb	(1096)	MOV	m-16(SP),R11
 00101658: f9403fea	(1096)	MOV	f+0(FP),R10
 0010165c: 8b000129	(1096)	ADD	R0,R9,R9
 00101660: 9100116b	(1094)	ADD	$4,R11,R11
 00101664: 17ffffd3	(1094)	B	,1015b0(BRANCH)
 00101668: aa0a03e0	(1096)	MOV	R10,R0
 0010166c: f9000be9	(1096)	MOV	R9,16(R31)
 00101670: b9001bed	(1096)	MOVW	R13,24(R31)
 00101674: 97fffdca	(1096)	BL	,_fmtflush+0x100d9c(BRANCH)
 00101678: b9406fec	(1096)	MOVWU	r-4(SP),R12
 0010167c: f94033eb	(1096)	MOV	m-16(SP),R11
 00101680: f9403fea	(1096)	MOV	f+0(FP),R10
 00101684: aa0003e9	(1096)	MOV	R0,R9
 00101688: eb1f001f	(1096)	CMP	$0,R0,
 0010168c: 54000080	(1096)	BEQ	,10169c(BRANCH)
 00101690: f9400d4e	(1096)	MOV	24(R10),R14
 00101694: f9001fee	(1096)	MOV	R14,s-56(SP)
 00101698: 17ffffdd	(1096)	B	,10160c(BRANCH)
 0010169c: 12800000	(1096)	MOVW	$-1,R0
 001016a0: f84707fe	(1096)	MOV	(R31)112!,R30
 001016a4: d65f03c0	(1096)	RET	,0(R30)
 001016a8: f9400945	(1098)	MOV	16(R10),R5
 001016ac: cb050125	(1098)	SUB	R5,R9,R5
 001016b0: b9803144	(1098)	MOVW	48(R10),R4
 001016b4: 0b050085	(1098)	ADDW	R5,R4,R5
 001016b8: b9003145	(1098)	MOVW	R5,48(R10)
 001016bc: f9000949	(1099)	MOV	R9,16(R10)
 001016c0: b94037e1	(1100)	MOVWU	fl-60(SP),R1
 001016c4: 121f0021	(1100)	ANDW	$2,R1
 001016c8: 6b1f003f	(1100)	CMPW	$0,R1,
 001016cc: 54fff340	(1100)	BEQ	,101534(BRANCH)
 001016d0: aa0a03e0	(1100)	MOV	R10,R0
 001016d4: b98033e5	(1100)	MOVW	w-64(SP),R5
 001016d8: b9808be4	(1100)	MOVW	n+16(FP),R4
 001016dc: 4b0400a5	(1100)	SUBW	R4,R5
 001016e0: b90013e5	(1100)	MOVW	R5,16(R31)
 001016e4: 97fffdd9	(1100)	BL	,_fmtpad+0x100e48(BRANCH)
 001016e8: 6b1f001f	(1100)	CMPW	$0,R0,
 001016ec: 54fff24a	(1100)	BGE	,101534(BRANCH)
 001016f0: 12800000	(1101)	MOVW	$-1,R0
 001016f4: f84707fe	(1101)	MOV	(R31)112!,R30
 001016f8: d65f03c0	(1101)	RET	,0(R30)
 001016fc: 12800000	(1091)	MOVW	$-1,R0
 00101700: f84707fe	(1091)	MOV	(R31)112!,R30
 00101704: d65f03c0	(1091)	RET	,0(R30)
 00101708: b9804945	(1077)	MOVW	72(R10),R5
 0010170c: b9008be5	(1077)	MOVW	R5,n+16(FP)
 00101710: 17ffff42	(1078)	B	,101418(BRANCH)

 00101714:		(1108)	TEXT	_charfmt+0(SB),R0,$40
 00101714: f81d0ffe	(1108)	MOV	R30,-48(R31)!
 00101718: f9401c01	(1112)	MOV	56(R0),R1
 0010171c: 91002021	(1112)	ADD	$8,R1
 00101720: f9001c01	(1112)	MOV	R1,56(R0)
 00101724: f9401c02	(1112)	MOV	56(R0),R2
 00101728: b89f8042	(1112)	MOVW	-8(R2),R2
 0010172c: 3900b3e2	(1112)	MOVB	R2,x-4(SP)
 00101730: 9801d6e3	(1113)	MOVW	$1,R3
 00101734: b9004803	(1113)	MOVW	R3,72(R0)
 00101738: 9100b3e5	(1114)	MOV	$x-4(SP),R5
 0010173c: f9000be5	(1114)	MOV	R5,16(R31)
 00101740: b9001be3	(1114)	MOVW	R3,24(R31)
 00101744: b90023e3	(1114)	MOVW	R3,32(R31)
 00101748: 97fffe15	(1114)	BL	,_fmtcpy+0x100f9c(BRANCH)
 0010174c: f84307fe	(1114)	MOV	(R31)48!,R30
 00101750: d65f03c0	(1114)	RET	,0(R30)

 00101754:		(1119)	TEXT	_runefmt+0(SB),R0,$40
 00101754: f81d0ffe	(1119)	MOV	R30,-48(R31)!
 00101758: f9401c05	(1123)	MOV	56(R0),R5
 0010175c: 910020a5	(1123)	ADD	$8,R5
 00101760: f9001c05	(1123)	MOV	R5,56(R0)
 00101764: f9401c02	(1123)	MOV	56(R0),R2
 00101768: b89f8042	(1123)	MOVW	-8(R2),R2
 0010176c: b9002fe2	(1123)	MOVWU	R2,x-4(SP)
 00101770: 9100b3e5	(1124)	MOV	$x-4(SP),R5
 00101774: f9000be5	(1124)	MOV	R5,16(R31)
 00101778: 9801d4a2	(1124)	MOVW	$1,R2
 0010177c: b9001be2	(1124)	MOVW	R2,24(R31)
 00101780: 97ffff16	(1124)	BL	,_fmtrcpy+0x1013d8(BRANCH)
 00101784: f84307fe	(1124)	MOV	(R31)48!,R30
 00101788: d65f03c0	(1124)	RET	,0(R30)

 0010178c:		(1129)	TEXT	fmtstrcpy+0(SB),R0,$56
 0010178c: f81c0ffe	(1129)	MOV	R30,-64(R31)!
 00101790: f9402bea	(1129)	MOV	s+8(FP),R10
 00101794: aa0003ec	(1129)	MOV	R0,R12
 00101798: eb1f015f	(1134)	CMP	$0,R10,
 0010179c: 54000141	(1134)	BNE	,1017c4(BRANCH)
 001017a0: aa0c03e0	(1135)	MOV	R12,R0
 001017a4: 91040383	(1135)	MOV	$.string<>+0(SB),R3
 001017a8: f9000be3	(1135)	MOV	R3,16(R31)
 001017ac: 528000a5	(1135)	MOVW	$5,R5
 001017b0: b9001be5	(1135)	MOVW	R5,24(R31)
 001017b4: b90023e5	(1135)	MOVW	R5,32(R31)
 001017b8: 97fffdf9	(1135)	BL	,_fmtcpy+0x100f9c(BRANCH)
 001017bc: f84407fe	(1135)	MOV	(R31)64!,R30
 001017c0: d65f03c0	(1135)	RET	,0(R30)
 001017c4: f90027e0	(1137)	MOV	R0,f+0(FP)
 001017c8: b9404c04	(1137)	MOVWU	76(R0),R4
 001017cc: 121e0084	(1137)	ANDW	$4,R4
 001017d0: 6b1f009f	(1137)	CMPW	$0,R4,
 001017d4: 540003c0	(1137)	BEQ	,10184c(BRANCH)
 001017d8: 2a1f03e9	(1138)	MOVW	$0,R9
 001017dc: 93407d2b	(1139)	MOVW	R9,R11
 001017e0: b9804981	(1139)	MOVW	72(R12),R1
 001017e4: b9003beb	(1139)	MOVW	R11,j-8(SP)
 001017e8: 6b01017f	(1139)	CMPW	R1,R11,
 001017ec: 540000aa	(1139)	BGE	,101800(BRANCH)
 001017f0: 8b0a0122	(1139)	ADD	R10,R9,R2
 001017f4: 39800042	(1139)	MOVB	0(R2),R2
 001017f8: 6b1f005f	(1139)	CMPW	$0,R2,
 001017fc: 54000101	(1139)	BNE	,10181c(BRANCH)
 00101800: aa0c03e0	(1141)	MOV	R12,R0
 00101804: f9000bea	(1141)	MOV	R10,16(R31)
 00101808: b9001beb	(1141)	MOVW	R11,24(R31)
 0010180c: b90023e9	(1141)	MOVW	R9,32(R31)
 00101810: 97fffde3	(1141)	BL	,_fmtcpy+0x100f9c(BRANCH)
 00101814: f84407fe	(1141)	MOV	(R31)64!,R30
 00101818: d65f03c0	(1141)	RET	,0(R30)
 0010181c: 9100d3e0	(1140)	MOV	$r-12(SP),R0
 00101820: b9003fe9	(1140)	MOVW	R9,i-4(SP)
 00101824: 8b0a0122	(1140)	ADD	R10,R9,R2
 00101828: f9000be2	(1140)	MOV	R2,16(R31)
 0010182c: 940002d5	(1140)	BL	,chartorune+0x102380(BRANCH)
 00101830: b9803fe9	(1140)	MOVW	i-4(SP),R9
 00101834: b9803beb	(1140)	MOVW	j-8(SP),R11
 00101838: f94027ec	(1140)	MOV	f+0(FP),R12
 0010183c: f9402bea	(1140)	MOV	s+8(FP),R10
 00101840: 0b000129	(1140)	ADDW	R0,R9,R9
 00101844: 1100056b	(1139)	ADDW	$1,R11,R11
 00101848: 17ffffe6	(1139)	B	,1017e0(BRANCH)
 0010184c: aa0a03e0	(1143)	MOV	R10,R0
 00101850: 9400028c	(1143)	BL	,utflen+0x102280(BRANCH)
 00101854: f9402be9	(1143)	MOV	s+8(FP),R9
 00101858: b9002fe0	(1143)	MOVW	R0,.safe-20(SP)
 0010185c: aa0903e0	(1143)	MOV	R9,R0
 00101860: 940002a2	(1143)	BL	,strlen+0x1022e8(BRANCH)
 00101864: f94027ea	(1143)	MOV	f+0(FP),R10
 00101868: f9402be9	(1143)	MOV	s+8(FP),R9
 0010186c: b9002be0	(1143)	MOVW	R0,.safe-24(SP)
 00101870: aa0a03e0	(1143)	MOV	R10,R0
 00101874: f9000be9	(1143)	MOV	R9,16(R31)
 00101878: b9802fe1	(1143)	MOVW	.safe-20(SP),R1
 0010187c: b9001be1	(1143)	MOVW	R1,24(R31)
 00101880: b9802be4	(1143)	MOVW	.safe-24(SP),R4
 00101884: b90023e4	(1143)	MOVW	R4,32(R31)
 00101888: 97fffdc5	(1143)	BL	,_fmtcpy+0x100f9c(BRANCH)
 0010188c: f84407fe	(1143)	MOV	(R31)64!,R30
 00101890: d65f03c0	(1143)	RET	,0(R30)

 00101894:		(1148)	TEXT	_strfmt+0(SB),R0,$24
 00101894: f81e0ffe	(1148)	MOV	R30,-32(R31)!
 00101898: f9401c01	(1152)	MOV	56(R0),R1
 0010189c: 91002021	(1152)	ADD	$8,R1
 001018a0: f9001c01	(1152)	MOV	R1,56(R0)
 001018a4: f9401c03	(1152)	MOV	56(R0),R3
 001018a8: f85f8063	(1152)	MOV	-8(R3),R3
 001018ac: f9000be3	(1153)	MOV	R3,16(R31)
 001018b0: 97ffffb7	(1153)	BL	,fmtstrcpy+0x10178c(BRANCH)
 001018b4: f84207fe	(1153)	MOV	(R31)32!,R30
 001018b8: d65f03c0	(1153)	RET	,0(R30)

 001018bc:		(1158)	TEXT	fmtrunestrcpy+0(SB),R0,$56
 001018bc: f81c0ffe	(1158)	MOV	R30,-64(R31)!
 001018c0: f9402bea	(1158)	MOV	s+8(FP),R10
 001018c4: aa0003ec	(1158)	MOV	R0,R12
 001018c8: eb1f015f	(1163)	CMP	$0,R10,
 001018cc: 54000141	(1163)	BNE	,1018f4(BRANCH)
 001018d0: aa0c03e0	(1164)	MOV	R12,R0
 001018d4: 91041b83	(1164)	MOV	$.string<>+6(SB),R3
 001018d8: f9000be3	(1164)	MOV	R3,16(R31)
 001018dc: 528000a5	(1164)	MOVW	$5,R5
 001018e0: b9001be5	(1164)	MOVW	R5,24(R31)
 001018e4: b90023e5	(1164)	MOVW	R5,32(R31)
 001018e8: 97fffdad	(1164)	BL	,_fmtcpy+0x100f9c(BRANCH)
 001018ec: f84407fe	(1164)	MOV	(R31)64!,R30
 001018f0: d65f03c0	(1164)	RET	,0(R30)
 001018f4: b9404c04	(1166)	MOVWU	76(R0),R4
 001018f8: 121e0084	(1166)	ANDW	$4,R4
 001018fc: 6b1f009f	(1166)	CMPW	$0,R4,
 00101900: 54000240	(1166)	BEQ	,101948(BRANCH)
 00101904: b980498b	(1167)	MOVW	72(R12),R11
 00101908: 2a1f03e9	(1168)	MOVW	$0,R9
 0010190c: 6b0b013f	(1168)	CMPW	R11,R9,
 00101910: 540000ca	(1168)	BGE	,101928(BRANCH)
 00101914: d37ef525	(1169)	LSL	$2,R9,R5
 00101918: 8b0a00a5	(1169)	ADD	R10,R5
 0010191c: b94000a5	(1169)	MOVWU	0(R5),R5
 00101920: 6b1f00bf	(1169)	CMPW	$0,R5,
 00101924: 540000e1	(1169)	BNE	,101940(BRANCH)
 00101928: aa0c03e0	(1176)	MOV	R12,R0
 0010192c: f9000bea	(1176)	MOV	R10,16(R31)
 00101930: b9001be9	(1176)	MOVW	R9,24(R31)
 00101934: 97fffea9	(1176)	BL	,_fmtrcpy+0x1013d8(BRANCH)
 00101938: f84407fe	(1176)	MOV	(R31)64!,R30
 0010193c: d65f03c0	(1176)	RET	,0(R30)
 00101940: 11000529	(1168)	ADDW	$1,R9,R9
 00101944: 17fffff2	(1168)	B	,10190c(BRANCH)
 00101948: aa0a03e9	(1172)	MOV	R10,R9
 0010194c: b9400124	(1172)	MOVWU	0(R9),R4
 00101950: 6b1f009f	(1172)	CMPW	$0,R4,
 00101954: 540000a0	(1172)	BEQ	,101968(BRANCH)
 00101958: 91001129	(1172)	ADD	$4,R9,R9
 0010195c: b9400124	(1172)	MOVWU	0(R9),R4
 00101960: 6b1f009f	(1172)	CMPW	$0,R4,
 00101964: 54ffffa1	(1172)	BNE	,101958(BRANCH)
 00101968: cb0a0123	(1174)	SUB	R10,R9,R3
 0010196c: 13027c69	(1174)	ASRW	$2,R3,R9
 00101970: 17ffffee	(1176)	B	,101928(BRANCH)

 00101974:		(1181)	TEXT	_runesfmt+0(SB),R0,$24
 00101974: f81e0ffe	(1181)	MOV	R30,-32(R31)!
 00101978: f9401c02	(1185)	MOV	56(R0),R2
 0010197c: 91002042	(1185)	ADD	$8,R2
 00101980: f9001c02	(1185)	MOV	R2,56(R0)
 00101984: f9401c04	(1185)	MOV	56(R0),R4
 00101988: f85f8084	(1185)	MOV	-8(R4),R4
 0010198c: f9000be4	(1186)	MOV	R4,16(R31)
 00101990: 97ffffcb	(1186)	BL	,fmtrunestrcpy+0x1018bc(BRANCH)
 00101994: f84207fe	(1186)	MOV	(R31)32!,R30
 00101998: d65f03c0	(1186)	RET	,0(R30)

 0010199c:		(1191)	TEXT	_percentfmt+0(SB),R0,$40
 0010199c: f81d0ffe	(1191)	MOV	R30,-48(R31)!
 001019a0: b9404001	(1195)	MOVWU	64(R0),R1
 001019a4: b9002fe1	(1195)	MOVWU	R1,x-4(SP)
 001019a8: 9801c323	(1196)	MOVW	$1,R3
 001019ac: b9004803	(1196)	MOVW	R3,72(R0)
 001019b0: 9100b3e5	(1197)	MOV	$x-4(SP),R5
 001019b4: f9000be5	(1197)	MOV	R5,16(R31)
 001019b8: b9001be3	(1197)	MOVW	R3,24(R31)
 001019bc: 97fffe87	(1197)	BL	,_fmtrcpy+0x1013d8(BRANCH)
 001019c0: f84307fe	(1197)	MOV	(R31)48!,R30
 001019c4: d65f03c0	(1197)	RET	,0(R30)

 001019c8:		(1207)	TEXT	_ifmt+0(SB),R0,$200
 001019c8: f8130ffe	(1207)	MOV	R30,-208(R31)!
 001019cc: aa0003eb	(1207)	MOV	R0,R11
 001019d0: b90047ff	(1215)	MOVW	$0,neg-140(SP)
 001019d4: b9804c0c	(1216)	MOVW	76(R0),R12
 001019d8: b9002fff	(1217)	MOVW	$0,isv-164(SP)
 001019dc: d280000f	(1218)	MOV	$0,R15
 001019e0: 93407ded	(1219)	MOVW	R15,R13
 001019e4: b9804005	(1220)	MOVW	64(R0),R5
 001019e8: 7101c0bf	(1220)	CMPW	$112,R5,
 001019ec: 54001f61	(1220)	BNE	,101dd8(BRANCH)
 001019f0: f9401d62	(1221)	MOV	56(R11),R2
 001019f4: 91002042	(1221)	ADD	$8,R2
 001019f8: f9001d62	(1221)	MOV	R2,56(R11)
 001019fc: f9401d64	(1221)	MOV	56(R11),R4
 00101a00: f85f808f	(1221)	MOV	-8(R4),R15
 00101a04: 9801c043	(1224)	MOVW	$1,R3
 00101a08: b9002fe3	(1224)	MOVW	R3,isv-164(SP)
 00101a0c: 9801c101	(1227)	MOVW	$120,R1
 00101a10: b9004161	(1227)	MOVW	R1,64(R11)
 00101a14: 3219018c	(1228)	ORRW	$128,R12,R12
 00101a18: 91043385	(1256)	MOV	$.string<>+12(SB),R5
 00101a1c: f90033e5	(1256)	MOV	R5,conv-112(SP)
 00101a20: b9804164	(1275)	MOVW	64(R11),R4
 00101a24: 7101909f	(1275)	CMPW	$100,R4,
 00101a28: 54001c8c	(1275)	BGT	,101db8(BRANCH)
 00101a2c: 7101909f	(1275)	CMPW	$100,R4,
 00101a30: 54001c00	(1275)	BEQ	,101db0(BRANCH)
 00101a34: 7101609f	(1275)	CMPW	$88,R4,
 00101a38: 54001b40	(1275)	BEQ	,101da0(BRANCH)
 00101a3c: 7101889f	(1275)	CMPW	$98,R4,
 00101a40: 54000080	(1275)	BEQ	,101a50(BRANCH)
 00101a44: 12800000	(1275)	MOVW	$-1,R0
 00101a48: f84d07fe	(1275)	MOV	(R31)208!,R30
 00101a4c: d65f03c0	(1275)	RET	,0(R30)
 00101a50: 9801bf0e	(1269)	MOVW	$2,R14
 00101a54: 12190184	(1277)	ANDW	$128,R12,R4
 00101a58: 6b1f009f	(1277)	CMPW	$0,R4,
 00101a5c: 54000161	(1277)	BNE	,101a88(BRANCH)
 00101a60: b9802fe1	(1278)	MOVW	isv-164(SP),R1
 00101a64: 6b1f003f	(1278)	CMPW	$0,R1,
 00101a68: 54000060	(1278)	BEQ	,101a74(BRANCH)
 00101a6c: eb1f01ff	(1278)	CMP	$0,R15,
 00101a70: 5400190b	(1278)	BLT	,101d90(BRANCH)
 00101a74: b9802fe5	(1281)	MOVW	isv-164(SP),R5
 00101a78: 6b1f00bf	(1281)	CMPW	$0,R5,
 00101a7c: 54000061	(1281)	BNE	,101a88(BRANCH)
 00101a80: 6b1f01bf	(1281)	CMPW	$0,R13,
 00101a84: 540017eb	(1281)	BLT	,101d80(BRANCH)
 00101a88: 9101d3e4	(1286)	MOV	$buf-92(SP),R4
 00101a8c: 9101608a	(1286)	ADD	$88,R4,R10
 00101a90: 2a1f03e9	(1287)	MOVW	$0,R9
 00101a94: b9802fe1	(1288)	MOVW	isv-164(SP),R1
 00101a98: 6b1f003f	(1288)	CMPW	$0,R1,
 00101a9c: 540012a0	(1288)	BEQ	,101cf0(BRANCH)
 00101aa0: eb1f01ff	(1289)	CMP	$0,R15,
 00101aa4: 540002e0	(1289)	BEQ	,101b00(BRANCH)
 00101aa8: 9ace09f1 9b0ebe2d(1290)	UREM	R14,R15,R13
 00101ab0: 9ace09ef	(1291)	UDIV	R14,R15,R15
 00101ab4: 12150182	(1292)	ANDW	$2048,R12,R2
 00101ab8: 6b1f005f	(1292)	CMPW	$0,R2,
 00101abc: 54000100	(1292)	BEQ	,101adc(BRANCH)
 00101ac0: 6b1f013f	(1292)	CMPW	$0,R9,
 00101ac4: 5400112a	(1292)	BGE	,101ce8(BRANCH)
 00101ac8: 4b0903e4	(1292)	NEGW	R9,R4
 00101acc: 12000484	(1292)	ANDW	$3,R4
 00101ad0: 4b0403e4	(1292)	NEGW	R4,R4
 00101ad4: 71000c9f	(1292)	CMPW	$3,R4,
 00101ad8: 54000fc0	(1292)	BEQ	,101cd0(BRANCH)
 00101adc: aa0a03e5	(1296)	MOV	R10,R5
 00101ae0: d100054a	(1296)	SUB	$1,R10,R10
 00101ae4: f94033e1	(1296)	MOV	conv-112(SP),R1
 00101ae8: 8b0101a6	(1296)	ADD	R1,R13,R6
 00101aec: 398000c6	(1296)	MOVB	0(R6),R6
 00101af0: 390000a6	(1296)	MOVB	R6,0(R5)
 00101af4: 11000529	(1297)	ADDW	$1,R9,R9
 00101af8: eb1f01ff	(1289)	CMP	$0,R15,
 00101afc: 54fffd61	(1289)	BNE	,101aa8(BRANCH)
 00101b00: 6b1f013f	(1311)	CMPW	$0,R9,
 00101b04: 540000c1	(1311)	BNE	,101b1c(BRANCH)
 00101b08: aa0a03e4	(1312)	MOV	R10,R4
 00101b0c: d100054a	(1312)	SUB	$1,R10,R10
 00101b10: 5801b945	(1312)	MOV	$48,R5
 00101b14: 39000085	(1312)	MOVB	R5,0(R4)
 00101b18: 9801b7a9	(1313)	MOVW	$1,R9
 00101b1c: b980496d	(1315)	MOVW	72(R11),R13
 00101b20: 6b0d013f	(1315)	CMPW	R13,R9,
 00101b24: 540000aa	(1315)	BGE	,101b38(BRANCH)
 00101b28: 9101d3e3	(1315)	MOV	$buf-92(SP),R3
 00101b2c: 91000c63	(1315)	ADD	$3,R3,R3
 00101b30: eb03015f	(1315)	CMP	R3,R10,
 00101b34: 54000c28	(1315)	BHI	,101cb8(BRANCH)
 00101b38: b98047e2	(1317)	MOVW	neg-140(SP),R2
 00101b3c: 6b1f005f	(1317)	CMPW	$0,R2,
 00101b40: 54000b81	(1317)	BNE	,101cb0(BRANCH)
 00101b44: 121c0584	(1317)	ANDW	$48,R12,R4
 00101b48: 6b1f009f	(1317)	CMPW	$0,R4,
 00101b4c: 54000b21	(1317)	BNE	,101cb0(BRANCH)
 00101b50: 121d0184	(1319)	ANDW	$8,R12,R4
 00101b54: 6b1f009f	(1319)	CMPW	$0,R4,
 00101b58: 54000080	(1319)	BEQ	,101b68(BRANCH)
 00101b5c: 710041df	(1320)	CMPW	$16,R14,
 00101b60: 54000961	(1320)	BNE	,101c8c(BRANCH)
 00101b64: 11000929	(1321)	ADDW	$2,R9,R9
 00101b68: 121a0185	(1329)	ANDW	$64,R12,R5
 00101b6c: 6b1f00bf	(1329)	CMPW	$0,R5,
 00101b70: 54000080	(1329)	BEQ	,101b80(BRANCH)
 00101b74: 121f0582	(1329)	ANDW	$6,R12,R2
 00101b78: 6b1f005f	(1329)	CMPW	$0,R2,
 00101b7c: 540006a0	(1329)	BEQ	,101c50(BRANCH)
 00101b80: 121d0182	(1334)	ANDW	$8,R12,R2
 00101b84: 6b1f005f	(1334)	CMPW	$0,R2,
 00101b88: 54000160	(1334)	BEQ	,101bb4(BRANCH)
 00101b8c: 710041df	(1335)	CMPW	$16,R14,
 00101b90: 540000a1	(1335)	BNE	,101ba4(BRANCH)
 00101b94: aa0a03e1	(1336)	MOV	R10,R1
 00101b98: d100054a	(1336)	SUB	$1,R10,R10
 00101b9c: b9804162	(1336)	MOVW	64(R11),R2
 00101ba0: 39000022	(1336)	MOVB	R2,0(R1)
 00101ba4: 710041df	(1337)	CMPW	$16,R14,
 00101ba8: 540004a0	(1337)	BEQ	,101c3c(BRANCH)
 00101bac: 710021df	(1337)	CMPW	$8,R14,
 00101bb0: 54000460	(1337)	BEQ	,101c3c(BRANCH)
 00101bb4: b98047e3	(1340)	MOVW	neg-140(SP),R3
 00101bb8: 6b1f007f	(1340)	CMPW	$0,R3,
 00101bbc: 54000200	(1340)	BEQ	,101bfc(BRANCH)
 00101bc0: aa0a03e5	(1341)	MOV	R10,R5
 00101bc4: d100054a	(1341)	SUB	$1,R10,R10
 00101bc8: d28005a6	(1341)	MOV	$45,R6
 00101bcc: 390000a6	(1341)	MOVB	R6,0(R5)
 00101bd0: b9404d64	(1346)	MOVWU	76(R11),R4
 00101bd4: 121d7884	(1346)	ANDW	$4294967291,R4
 00101bd8: b9004d64	(1346)	MOVW	R4,76(R11)
 00101bdc: aa0b03e0	(1347)	MOV	R11,R0
 00101be0: 91000543	(1347)	ADD	$1,R10,R3
 00101be4: f9000be3	(1347)	MOV	R3,16(R31)
 00101be8: b9001be9	(1347)	MOVW	R9,24(R31)
 00101bec: b90023e9	(1347)	MOVW	R9,32(R31)
 00101bf0: 97fffceb	(1347)	BL	,_fmtcpy+0x100f9c(BRANCH)
 00101bf4: f84d07fe	(1347)	MOV	(R31)208!,R30
 00101bf8: d65f03c0	(1347)	RET	,0(R30)
 00101bfc: 121b0181	(1342)	ANDW	$32,R12,R1
 00101c00: 6b1f003f	(1342)	CMPW	$0,R1,
 00101c04: 540000c0	(1342)	BEQ	,101c1c(BRANCH)
 00101c08: aa0a03e3	(1343)	MOV	R10,R3
 00101c0c: d100054a	(1343)	SUB	$1,R10,R10
 00101c10: d2800564	(1343)	MOV	$43,R4
 00101c14: 39000064	(1343)	MOVB	R4,0(R3)
 00101c18: 17ffffee	(1346)	B	,101bd0(BRANCH)
 00101c1c: 121c0184	(1344)	ANDW	$16,R12,R4
 00101c20: 6b1f009f	(1344)	CMPW	$0,R4,
 00101c24: 54fffd60	(1344)	BEQ	,101bd0(BRANCH)
 00101c28: aa0a03e1	(1345)	MOV	R10,R1
 00101c2c: d100054a	(1345)	SUB	$1,R10,R10
 00101c30: 1801af02	(1345)	MOV	$32,R2
 00101c34: 39000022	(1345)	MOVB	R2,0(R1)
 00101c38: 17ffffe6	(1346)	B	,101bd0(BRANCH)
 00101c3c: aa0a03e2	(1338)	MOV	R10,R2
 00101c40: d100054a	(1338)	SUB	$1,R10,R10
 00101c44: 5801afa3	(1338)	MOV	$48,R3
 00101c48: 39000043	(1338)	MOVB	R3,0(R2)
 00101c4c: 17ffffda	(1340)	B	,101bb4(BRANCH)
 00101c50: b980456d	(1330)	MOVW	68(R11),R13
 00101c54: 6b0d013f	(1330)	CMPW	R13,R9,
 00101c58: 540000aa	(1330)	BGE	,101c6c(BRANCH)
 00101c5c: 9101d3e1	(1330)	MOV	$buf-92(SP),R1
 00101c60: 91000c21	(1330)	ADD	$3,R1,R1
 00101c64: eb01015f	(1330)	CMP	R1,R10,
 00101c68: 54000068	(1330)	BHI	,101c74(BRANCH)
 00101c6c: b900457f	(1332)	MOVW	$0,68(R11)
 00101c70: 17ffffc4	(1334)	B	,101b80(BRANCH)
 00101c74: aa0a03e4	(1331)	MOV	R10,R4
 00101c78: d100054a	(1331)	SUB	$1,R10,R10
 00101c7c: 5801ade5	(1331)	MOV	$48,R5
 00101c80: 39000085	(1331)	MOVB	R5,0(R4)
 00101c84: 11000529	(1330)	ADDW	$1,R9,R9
 00101c88: 17fffff3	(1330)	B	,101c54(BRANCH)
 00101c8c: 710021df	(1322)	CMPW	$8,R14,
 00101c90: 54fff6c1	(1322)	BNE	,101b68(BRANCH)
 00101c94: 39800543	(1323)	MOVB	1(R10),R3
 00101c98: 7100c07f	(1323)	CMPW	$48,R3,
 00101c9c: 54000061	(1323)	BNE	,101ca8(BRANCH)
 00101ca0: 121c798c	(1324)	ANDW	$-9,R12,R12
 00101ca4: 17ffffb1	(1329)	B	,101b68(BRANCH)
 00101ca8: 11000529	(1326)	ADDW	$1,R9,R9
 00101cac: 17ffffaf	(1329)	B	,101b68(BRANCH)
 00101cb0: 11000529	(1318)	ADDW	$1,R9,R9
 00101cb4: 17ffffa7	(1319)	B	,101b50(BRANCH)
 00101cb8: aa0a03e1	(1316)	MOV	R10,R1
 00101cbc: d100054a	(1316)	SUB	$1,R10,R10
 00101cc0: 5801abc2	(1316)	MOV	$48,R2
 00101cc4: 39000022	(1316)	MOVB	R2,0(R1)
 00101cc8: 11000529	(1315)	ADDW	$1,R9,R9
 00101ccc: 17ffff95	(1315)	B	,101b20(BRANCH)
 00101cd0: aa0a03e1	(1293)	MOV	R10,R1
 00101cd4: d100054a	(1293)	SUB	$1,R10,R10
 00101cd8: d2800582	(1293)	MOV	$44,R2
 00101cdc: 39000022	(1293)	MOVB	R2,0(R1)
 00101ce0: 11000529	(1294)	ADDW	$1,R9,R9
 00101ce4: 17ffff7e	(1296)	B	,101adc(BRANCH)
 00101ce8: 12000524	(1292)	ANDW	$3,R9,R4
 00101cec: 17ffff7a	(1292)	B	,101ad4(BRANCH)
 00101cf0: 2a0d03e3	(1300)	MOVWU	R13,R3
 00101cf4: 6b1f007f	(1300)	CMPW	$0,R3,
 00101cf8: 54fff040	(1300)	BEQ	,101b00(BRANCH)
 00101cfc: 2a0d03e5	(1301)	MOVWU	R13,R5
 00101d00: 2a0e03e3	(1301)	MOVWU	R14,R3
 00101d04: 1ac308b1 1b03962f(1301)	UREMW	R3,R5,R15
 00101d0c: 2a0e03e1	(1302)	MOVWU	R14,R1
 00101d10: 2a0d03e3	(1302)	MOVWU	R13,R3
 00101d14: 1ac1086d	(1302)	UDIVW	R1,R3,R13
 00101d18: 12150181	(1303)	ANDW	$2048,R12,R1
 00101d1c: 6b1f003f	(1303)	CMPW	$0,R1,
 00101d20: 54000100	(1303)	BEQ	,101d40(BRANCH)
 00101d24: 6b1f013f	(1303)	CMPW	$0,R9,
 00101d28: 5400028a	(1303)	BGE	,101d78(BRANCH)
 00101d2c: 4b0903e3	(1303)	NEGW	R9,R3
 00101d30: 12000463	(1303)	ANDW	$3,R3
 00101d34: 4b0303e3	(1303)	NEGW	R3,R3
 00101d38: 71000c7f	(1303)	CMPW	$3,R3,
 00101d3c: 54000120	(1303)	BEQ	,101d60(BRANCH)
 00101d40: aa0a03e4	(1307)	MOV	R10,R4
 00101d44: d100054a	(1307)	SUB	$1,R10,R10
 00101d48: f94033e6	(1307)	MOV	conv-112(SP),R6
 00101d4c: 8b0601e5	(1307)	ADD	R6,R15,R5
 00101d50: 398000a5	(1307)	MOVB	0(R5),R5
 00101d54: 39000085	(1307)	MOVB	R5,0(R4)
 00101d58: 11000529	(1308)	ADDW	$1,R9,R9
 00101d5c: 17ffffe5	(1300)	B	,101cf0(BRANCH)
 00101d60: aa0a03e5	(1304)	MOV	R10,R5
 00101d64: d100054a	(1304)	SUB	$1,R10,R10
 00101d68: d2800586	(1304)	MOV	$44,R6
 00101d6c: 390000a6	(1304)	MOVB	R6,0(R5)
 00101d70: 11000529	(1305)	ADDW	$1,R9,R9
 00101d74: 17fffff3	(1307)	B	,101d40(BRANCH)
 00101d78: 12000523	(1303)	ANDW	$3,R9,R3
 00101d7c: 17ffffef	(1303)	B	,101d38(BRANCH)
 00101d80: 4b0d03ed	(1282)	NEGW	R13,R13
 00101d84: 9801a443	(1283)	MOVW	$1,R3
 00101d88: b90047e3	(1283)	MOVW	R3,neg-140(SP)
 00101d8c: 17ffff3f	(1286)	B	,101a88(BRANCH)
 00101d90: cb0f03ef	(1279)	NEG	R15,R15
 00101d94: 9801a3c4	(1280)	MOVW	$1,R4
 00101d98: b90047e4	(1280)	MOVW	R4,neg-140(SP)
 00101d9c: 17ffff3b	(1286)	B	,101a88(BRANCH)
 00101da0: 9801a34e	(1265)	MOVW	$16,R14
 00101da4: 91047785	(1266)	MOV	$.string<>+29(SB),R5
 00101da8: f90033e5	(1266)	MOV	R5,conv-112(SP)
 00101dac: 17ffff2a	(1277)	B	,101a54(BRANCH)
 00101db0: 5280014e	(1259)	MOVW	$10,R14
 00101db4: 17ffff28	(1277)	B	,101a54(BRANCH)
 00101db8: 7101bc9f	(1275)	CMPW	$111,R4,
 00101dbc: 540000a0	(1275)	BEQ	,101dd0(BRANCH)
 00101dc0: 7101e09f	(1275)	CMPW	$120,R4,
 00101dc4: 54ffe401	(1275)	BNE	,101a44(BRANCH)
 00101dc8: 9801a20e	(1262)	MOVW	$16,R14
 00101dcc: 17ffff22	(1277)	B	,101a54(BRANCH)
 00101dd0: 9801a22e	(1272)	MOVW	$8,R14
 00101dd4: 17ffff20	(1277)	B	,101a54(BRANCH)
 00101dd8: 12160185	(1229)	ANDW	$1024,R12,R5
 00101ddc: 6b1f00bf	(1229)	CMPW	$0,R5,
 00101de0: 54000240	(1229)	BEQ	,101e28(BRANCH)
 00101de4: 9801a142	(1230)	MOVW	$1,R2
 00101de8: b9002fe2	(1230)	MOVW	R2,isv-164(SP)
 00101dec: 12190183	(1231)	ANDW	$128,R12,R3
 00101df0: 6b1f007f	(1231)	CMPW	$0,R3,
 00101df4: 540000e0	(1231)	BEQ	,101e10(BRANCH)
 00101df8: f9401d63	(1232)	MOV	56(R11),R3
 00101dfc: 91002063	(1232)	ADD	$8,R3
 00101e00: f9001d63	(1232)	MOV	R3,56(R11)
 00101e04: f9401d65	(1232)	MOV	56(R11),R5
 00101e08: f85f80af	(1232)	MOV	-8(R5),R15
 00101e0c: 17ffff03	(1256)	B	,101a18(BRANCH)
 00101e10: f9401d65	(1234)	MOV	56(R11),R5
 00101e14: 910020a5	(1234)	ADD	$8,R5
 00101e18: f9001d65	(1234)	MOV	R5,56(R11)
 00101e1c: f9401d62	(1234)	MOV	56(R11),R2
 00101e20: f85f804f	(1234)	MOV	-8(R2),R15
 00101e24: 17fffefd	(1256)	B	,101a18(BRANCH)
 00101e28: 12170184	(1235)	ANDW	$512,R12,R4
 00101e2c: 6b1f009f	(1235)	CMPW	$0,R4,
 00101e30: 54000200	(1235)	BEQ	,101e70(BRANCH)
 00101e34: 12190181	(1236)	ANDW	$128,R12,R1
 00101e38: 6b1f003f	(1236)	CMPW	$0,R1,
 00101e3c: 540000e0	(1236)	BEQ	,101e58(BRANCH)
 00101e40: f9401d61	(1237)	MOV	56(R11),R1
 00101e44: 91002021	(1237)	ADD	$8,R1
 00101e48: f9001d61	(1237)	MOV	R1,56(R11)
 00101e4c: f9401d6d	(1237)	MOV	56(R11),R13
 00101e50: b85f81ad	(1237)	MOVWU	-8(R13),R13
 00101e54: 17fffef1	(1256)	B	,101a18(BRANCH)
 00101e58: f9401d63	(1239)	MOV	56(R11),R3
 00101e5c: 91002063	(1239)	ADD	$8,R3
 00101e60: f9001d63	(1239)	MOV	R3,56(R11)
 00101e64: f9401d65	(1239)	MOV	56(R11),R5
 00101e68: b89f80ad	(1239)	MOVW	-8(R5),R13
 00101e6c: 17fffeeb	(1256)	B	,101a18(BRANCH)
 00101e70: 12140182	(1240)	ANDW	$4096,R12,R2
 00101e74: 6b1f005f	(1240)	CMPW	$0,R2,
 00101e78: 54000260	(1240)	BEQ	,101ec4(BRANCH)
 00101e7c: 12190184	(1241)	ANDW	$128,R12,R4
 00101e80: 6b1f009f	(1241)	CMPW	$0,R4,
 00101e84: 54000120	(1241)	BEQ	,101ea8(BRANCH)
 00101e88: f9401d62	(1242)	MOV	56(R11),R2
 00101e8c: 91002042	(1242)	ADD	$8,R2
 00101e90: f9001d62	(1242)	MOV	R2,56(R11)
 00101e94: f9401d61	(1242)	MOV	56(R11),R1
 00101e98: b89f802d	(1242)	MOVW	-8(R1),R13
 00101e9c: 2a0d03ed	(1242)	MOVWU	R13,R13
 00101ea0: d3401dad	(1242)	MOVBU	R13,R13
 00101ea4: 17fffedd	(1256)	B	,101a18(BRANCH)
 00101ea8: f9401d63	(1244)	MOV	56(R11),R3
 00101eac: 91002063	(1244)	ADD	$8,R3
 00101eb0: f9001d63	(1244)	MOV	R3,56(R11)
 00101eb4: f9401d62	(1244)	MOV	56(R11),R2
 00101eb8: b89f804d	(1244)	MOVW	-8(R2),R13
 00101ebc: 93401dad	(1244)	MOVB	R13,R13
 00101ec0: 17fffed6	(1256)	B	,101a18(BRANCH)
 00101ec4: 12180183	(1245)	ANDW	$256,R12,R3
 00101ec8: 6b1f007f	(1245)	CMPW	$0,R3,
 00101ecc: 54000260	(1245)	BEQ	,101f18(BRANCH)
 00101ed0: 12190185	(1246)	ANDW	$128,R12,R5
 00101ed4: 6b1f00bf	(1246)	CMPW	$0,R5,
 00101ed8: 54000120	(1246)	BEQ	,101efc(BRANCH)
 00101edc: f9401d63	(1247)	MOV	56(R11),R3
 00101ee0: 91002063	(1247)	ADD	$8,R3
 00101ee4: f9001d63	(1247)	MOV	R3,56(R11)
 00101ee8: f9401d62	(1247)	MOV	56(R11),R2
 00101eec: b89f804d	(1247)	MOVW	-8(R2),R13
 00101ef0: 2a0d03ed	(1247)	MOVWU	R13,R13
 00101ef4: d3403dad	(1247)	MOVHU	R13,R13
 00101ef8: 17fffec8	(1256)	B	,101a18(BRANCH)
 00101efc: f9401d64	(1249)	MOV	56(R11),R4
 00101f00: 91002084	(1249)	ADD	$8,R4
 00101f04: f9001d64	(1249)	MOV	R4,56(R11)
 00101f08: f9401d63	(1249)	MOV	56(R11),R3
 00101f0c: b89f806d	(1249)	MOVW	-8(R3),R13
 00101f10: 93403dad	(1249)	MOVH	R13,R13
 00101f14: 17fffec1	(1256)	B	,101a18(BRANCH)
 00101f18: 12190184	(1251)	ANDW	$128,R12,R4
 00101f1c: 6b1f009f	(1251)	CMPW	$0,R4,
 00101f20: 540000e0	(1251)	BEQ	,101f3c(BRANCH)
 00101f24: f9401d64	(1252)	MOV	56(R11),R4
 00101f28: 91002084	(1252)	ADD	$8,R4
 00101f2c: f9001d64	(1252)	MOV	R4,56(R11)
 00101f30: f9401d6d	(1252)	MOV	56(R11),R13
 00101f34: b85f81ad	(1252)	MOVWU	-8(R13),R13
 00101f38: 17fffeb8	(1256)	B	,101a18(BRANCH)
 00101f3c: f9401c01	(1254)	MOV	56(R0),R1
 00101f40: 91002021	(1254)	ADD	$8,R1
 00101f44: f9001c01	(1254)	MOV	R1,56(R0)
 00101f48: f9401c03	(1254)	MOV	56(R0),R3
 00101f4c: b89f806d	(1254)	MOVW	-8(R3),R13
 00101f50: 17fffeb2	(1256)	B	,101a18(BRANCH)

 00101f54:		(1351)	TEXT	_countfmt+0(SB),R0,$24
 00101f54: d10083ff	(1351)	SUB	$32,R31
 00101f58: b9404c03	(1356)	MOVWU	76(R0),R3
 00101f5c: 93407c6b	(1356)	MOVW	R3,R11
 00101f60: f9401c01	(1357)	MOV	56(R0),R1
 00101f64: 91002021	(1357)	ADD	$8,R1
 00101f68: f9001c01	(1357)	MOV	R1,56(R0)
 00101f6c: f9401c03	(1357)	MOV	56(R0),R3
 00101f70: f85f8063	(1357)	MOV	-8(R3),R3
 00101f74: 2a0b03e5	(1358)	MOVWU	R11,R5
 00101f78: 121600a5	(1358)	ANDW	$1024,R5
 00101f7c: 6b1f00bf	(1358)	CMPW	$0,R5,
 00101f80: 540000c0	(1358)	BEQ	,101f98(BRANCH)
 00101f84: b9803004	(1359)	MOVW	48(R0),R4
 00101f88: f9000064	(1359)	MOV	R4,0(R3)
 00101f8c: 2a1f03e0	(1369)	MOVW	$0,R0
 00101f90: 910083ff	(1369)	ADD	$32,R31
 00101f94: d65f03c0	(1369)	RET	,0(R30)
 00101f98: 2a0b03e1	(1360)	MOVWU	R11,R1
 00101f9c: 12170021	(1360)	ANDW	$512,R1
 00101fa0: 6b1f003f	(1360)	CMPW	$0,R1,
 00101fa4: 540000c0	(1360)	BEQ	,101fbc(BRANCH)
 00101fa8: b9803005	(1361)	MOVW	48(R0),R5
 00101fac: b9000065	(1361)	MOVW	R5,0(R3)
 00101fb0: 2a1f03e0	(1369)	MOVW	$0,R0
 00101fb4: 910083ff	(1369)	ADD	$32,R31
 00101fb8: d65f03c0	(1369)	RET	,0(R30)
 00101fbc: 2a0b03e5	(1362)	MOVWU	R11,R5
 00101fc0: 121400a5	(1362)	ANDW	$4096,R5
 00101fc4: 6b1f00bf	(1362)	CMPW	$0,R5,
 00101fc8: 540000c0	(1362)	BEQ	,101fe0(BRANCH)
 00101fcc: b9803004	(1363)	MOVW	48(R0),R4
 00101fd0: 39000064	(1363)	MOVB	R4,0(R3)
 00101fd4: 2a1f03e0	(1369)	MOVW	$0,R0
 00101fd8: 910083ff	(1369)	ADD	$32,R31
 00101fdc: d65f03c0	(1369)	RET	,0(R30)
 00101fe0: 2a0b03e1	(1364)	MOVWU	R11,R1
 00101fe4: 12180021	(1364)	ANDW	$256,R1
 00101fe8: 6b1f003f	(1364)	CMPW	$0,R1,
 00101fec: 540000c0	(1364)	BEQ	,102004(BRANCH)
 00101ff0: b9803005	(1365)	MOVW	48(R0),R5
 00101ff4: 79000065	(1365)	MOVH	R5,0(R3)
 00101ff8: 2a1f03e0	(1369)	MOVW	$0,R0
 00101ffc: 910083ff	(1369)	ADD	$32,R31
 00102000: d65f03c0	(1369)	RET	,0(R30)
 00102004: b9803004	(1367)	MOVW	48(R0),R4
 00102008: b9000064	(1367)	MOVW	R4,0(R3)
 0010200c: 2a1f03e0	(1369)	MOVW	$0,R0
 00102010: 910083ff	(1369)	ADD	$32,R31
 00102014: d65f03c0	(1369)	RET	,0(R30)

 00102018:		(1373)	TEXT	_flagfmt+0(SB),R0,$-8
 00102018: aa0003e9	(1373)	MOV	R0,R9
 0010201c: b9804003	(1403)	MOVW	64(R0),R3
 00102020: 7100b47f	(1403)	CMPW	$45,R3,
 00102024: 540004cc	(1403)	BGT	,1020bc(BRANCH)
 00102028: 7100b47f	(1403)	CMPW	$45,R3,
 0010202c: 540003e0	(1403)	BEQ	,1020a8(BRANCH)
 00102030: 7100807f	(1403)	CMPW	$32,R3,
 00102034: 54000300	(1403)	BEQ	,102094(BRANCH)
 00102038: 71008c7f	(1403)	CMPW	$35,R3,
 0010203c: 54000220	(1403)	BEQ	,102080(BRANCH)
 00102040: 7100ac7f	(1403)	CMPW	$43,R3,
 00102044: 54000140	(1403)	BEQ	,10206c(BRANCH)
 00102048: 7100b07f	(1403)	CMPW	$44,R3,
 0010204c: 54000060	(1403)	BEQ	,102058(BRANCH)
 00102050: 98018de0	(1405)	MOVW	$1,R0
 00102054: d65f03c0	(1405)	RET	,0(R30)
 00102058: b9404d22	(1377)	MOVWU	76(R9),R2
 0010205c: 32150042	(1377)	ORRW	$2048,R2
 00102060: b9004d22	(1377)	MOVW	R2,76(R9)
 00102064: 98018d40	(1405)	MOVW	$1,R0
 00102068: d65f03c0	(1405)	RET	,0(R30)
 0010206c: b9404d22	(1383)	MOVWU	76(R9),R2
 00102070: 321b0042	(1383)	ORRW	$32,R2
 00102074: b9004d22	(1383)	MOVW	R2,76(R9)
 00102078: 98018ca0	(1405)	MOVW	$1,R0
 0010207c: d65f03c0	(1405)	RET	,0(R30)
 00102080: b9404d22	(1386)	MOVWU	76(R9),R2
 00102084: 321d0042	(1386)	ORRW	$8,R2
 00102088: b9004d22	(1386)	MOVW	R2,76(R9)
 0010208c: 98018c00	(1405)	MOVW	$1,R0
 00102090: d65f03c0	(1405)	RET	,0(R30)
 00102094: b9404d22	(1389)	MOVWU	76(R9),R2
 00102098: 321c0042	(1389)	ORRW	$16,R2
 0010209c: b9004d22	(1389)	MOVW	R2,76(R9)
 001020a0: 98018b60	(1405)	MOVW	$1,R0
 001020a4: d65f03c0	(1405)	RET	,0(R30)
 001020a8: b9404d22	(1380)	MOVWU	76(R9),R2
 001020ac: 321f0042	(1380)	ORRW	$2,R2
 001020b0: b9004d22	(1380)	MOVW	R2,76(R9)
 001020b4: 98018ac0	(1405)	MOVW	$1,R0
 001020b8: d65f03c0	(1405)	RET	,0(R30)
 001020bc: 7101a07f	(1403)	CMPW	$104,R3,
 001020c0: 540002c0	(1403)	BEQ	,102118(BRANCH)
 001020c4: 7101b07f	(1403)	CMPW	$108,R3,
 001020c8: 54000100	(1403)	BEQ	,1020e8(BRANCH)
 001020cc: 7101d47f	(1403)	CMPW	$117,R3,
 001020d0: 54fffc01	(1403)	BNE	,102050(BRANCH)
 001020d4: b9404d22	(1392)	MOVWU	76(R9),R2
 001020d8: 32190042	(1392)	ORRW	$128,R2
 001020dc: b9004d22	(1392)	MOVW	R2,76(R9)
 001020e0: 98018960	(1405)	MOVW	$1,R0
 001020e4: d65f03c0	(1405)	RET	,0(R30)
 001020e8: b9404d24	(1400)	MOVWU	76(R9),R4
 001020ec: 12170084	(1400)	ANDW	$512,R4
 001020f0: 6b1f009f	(1400)	CMPW	$0,R4,
 001020f4: 54000080	(1400)	BEQ	,102104(BRANCH)
 001020f8: b9404d25	(1401)	MOVWU	76(R9),R5
 001020fc: 321600a5	(1401)	ORRW	$1024,R5
 00102100: b9004d25	(1401)	MOVW	R5,76(R9)
 00102104: b9404d25	(1402)	MOVWU	76(R9),R5
 00102108: 321700a5	(1402)	ORRW	$512,R5
 0010210c: b9004d25	(1402)	MOVW	R5,76(R9)
 00102110: 980187e0	(1405)	MOVW	$1,R0
 00102114: d65f03c0	(1405)	RET	,0(R30)
 00102118: b9404c05	(1395)	MOVWU	76(R0),R5
 0010211c: 121800a5	(1395)	ANDW	$256,R5
 00102120: 6b1f00bf	(1395)	CMPW	$0,R5,
 00102124: 54000080	(1395)	BEQ	,102134(BRANCH)
 00102128: b9404d21	(1396)	MOVWU	76(R9),R1
 0010212c: 32140021	(1396)	ORRW	$4096,R1
 00102130: b9004d21	(1396)	MOVW	R1,76(R9)
 00102134: b9404d21	(1397)	MOVWU	76(R9),R1
 00102138: 32180021	(1397)	ORRW	$256,R1
 0010213c: b9004d21	(1397)	MOVW	R1,76(R9)
 00102140: 98018660	(1405)	MOVW	$1,R0
 00102144: d65f03c0	(1405)	RET	,0(R30)

 00102148:		(1410)	TEXT	_badfmt+0(SB),R0,$40
 00102148: f81d0ffe	(1410)	MOV	R30,-48(R31)!
 0010214c: 528004a4	(1414)	MOVWU	$37,R4
 00102150: b90027e4	(1414)	MOVWU	R4,x-12(SP)
 00102154: b9404005	(1415)	MOVWU	64(R0),R5
 00102158: b9002be5	(1415)	MOVWU	R5,x-8(SP)
 0010215c: 528004a5	(1416)	MOVWU	$37,R5
 00102160: b9002fe5	(1416)	MOVWU	R5,x-4(SP)
 00102164: 980186e3	(1417)	MOVW	$3,R3
 00102168: b9004803	(1417)	MOVW	R3,72(R0)
 0010216c: 910093e5	(1418)	MOV	$x-12(SP),R5
 00102170: f9000be5	(1418)	MOV	R5,16(R31)
 00102174: b9001be3	(1418)	MOVW	R3,24(R31)
 00102178: 97fffc98	(1418)	BL	,_fmtrcpy+0x1013d8(BRANCH)
 0010217c: 2a1f03e0	(1419)	MOVW	$0,R0
 00102180: f84307fe	(1419)	MOV	(R31)48!,R30
 00102184: d65f03c0	(1419)	RET	,0(R30)

 00102188:		(1)	TEXT	semrelease+0(SB),R1,$-8
 00102188: f90007e0	(3)	MOV	R0,a0+0(FP)
 0010218c: d40004c1	(4)	SVC	,$38
 00102190: d65f03c0	(5)	RET	,0(R30)

 00102194:		(1)	TEXT	semacquire+0(SB),R1,$-8
 00102194: f90007e0	(3)	MOV	R0,a0+0(FP)
 00102198: d40004a1	(4)	SVC	,$37
 0010219c: d65f03c0	(5)	RET	,0(R30)

 001021a0:		(1)	TEXT	open+0(SB),R1,$-8
 001021a0: f90007e0	(3)	MOV	R0,a0+0(FP)
 001021a4: d40001c1	(4)	SVC	,$14
 001021a8: d65f03c0	(5)	RET	,0(R30)

 001021ac:		(1)	TEXT	close+0(SB),R1,$-8
 001021ac: f90007e0	(3)	MOV	R0,a0+0(FP)
 001021b0: d4000081	(4)	SVC	,$4
 001021b4: d65f03c0	(5)	RET	,0(R30)

 001021b8:		(812)	TEXT	write+0(SB),R0,$40
 001021b8: f81d0ffe	(812)	MOV	R30,-48(R31)!
 001021bc: f94023eb	(812)	MOV	buf+8(FP),R11
 001021c0: b9804bea	(812)	MOVW	n+16(FP),R10
 001021c4: f9000beb	(814)	MOV	R11,16(R31)
 001021c8: b9001bea	(814)	MOVW	R10,24(R31)
 001021cc: 92800004	(814)	MOV	$-1,R4
 001021d0: f90013e4	(814)	MOV	R4,32(R31)
 001021d4: 94000577	(814)	BL	,pwrite+0x1037b0(BRANCH)
 001021d8: f84307fe	(814)	MOV	(R31)48!,R30
 001021dc: d65f03c0	(814)	RET	,0(R30)

 001021e0:		(812)	TEXT	read+0(SB),R0,$40
 001021e0: f81d0ffe	(812)	MOV	R30,-48(R31)!
 001021e4: f94023eb	(812)	MOV	buf+8(FP),R11
 001021e8: b9804bea	(812)	MOVW	n+16(FP),R10
 001021ec: f9000beb	(814)	MOV	R11,16(R31)
 001021f0: b9001bea	(814)	MOVW	R10,24(R31)
 001021f4: 92800004	(814)	MOV	$-1,R4
 001021f8: f90013e4	(814)	MOV	R4,32(R31)
 001021fc: 94000570	(814)	BL	,pread+0x1037bc(BRANCH)
 00102200: f84307fe	(814)	MOV	(R31)48!,R30
 00102204: d65f03c0	(814)	RET	,0(R30)

 00102208:		(5)	TEXT	cas+0(SB),R0,$-8

 00102208:		(6)	TEXT	casp+0(SB),R0,$-8
 00102208: f9400be1	(7)	MOV	ov+8(FP),R1
 0010220c: f9400fe2	(8)	MOV	nv+16(FP),R2
 00102210: c85f7c03	(10)	LDXR	0(R0),R3
 00102214: eb03003f	(12)	CMP	R3,R1,
 00102218: 540000a1	(13)	BNE	,fail+0x10222c(BRANCH)
 0010221c: c8047c02	(13)	STXR	R2,R4,0(R0)
 00102220: b5ffff84	(15)	CBNZ	R4,spincas+0x102210(BRANCH)
 00102224: 18017f40	(15)	MOV	$1,R0
 00102228: d65f03c0	(17)	RET	,0(R30)
 0010222c: d5033f5f	(19)	CLREX	,
 00102230: d2800000	(19)	MOV	$0,R0
 00102234: d65f03c0	(21)	RET	,0(R30)

 00102238:		(22)	TEXT	_xinc+0(SB),$-8

 00102238:		(23)	TEXT	ainc+0(SB),$-8
 00102238: c85f7c03	(25)	LDXR	0(R0),R3
 0010223c: 91000463	(27)	ADD	$1,R3
 00102240: c8047c03	(27)	STXR	R3,R4,0(R0)
 00102244: b5ffffa4	(29)	CBNZ	R4,spinainc+0x102238(BRANCH)
 00102248: aa0303e0	(29)	MOV	R3,R0
 0010224c: d65f03c0	(31)	RET	,0(R30)

 00102250:		(32)	TEXT	_xdec+0(SB),$-8

 00102250:		(33)	TEXT	adec+0(SB),$-8
 00102250: c85f7c03	(35)	LDXR	0(R0),R3
 00102254: d1000463	(37)	SUB	$1,R3
 00102258: c8047c03	(37)	STXR	R3,R4,0(R0)
 0010225c: b5ffffa4	(39)	CBNZ	R4,spinadec+0x102250(BRANCH)
 00102260: aa0303e0	(39)	MOV	R3,R0
 00102264: d65f03c0	(41)	RET	,0(R30)

 00102268:		(42)	TEXT	loadlinked+0(SB),$-8
 00102268: c85f7c00	(43)	LDXR	0(R0),R0
 0010226c: d65f03c0	(45)	RET	,0(R30)

 00102270:		(46)	TEXT	storecond+0(SB),$-8
 00102270: f9400be3	(47)	MOV	ov+8(FP),R3
 00102274: c8007c03	(48)	STXR	R3,R0,0(R0)
 00102278: d1000400	(50)	SUB	$1,R0
 0010227c: d65f03c0	(51)	RET	,0(R30)

 00102280:		(812)	TEXT	utflen+0(SB),R0,$40
 00102280: f81d0ffe	(812)	MOV	R30,-48(R31)!
 00102284: aa0003e9	(812)	MOV	R0,R9
 00102288: 2a1f03eb	(818)	MOVW	$0,R11
 0010228c: b9002beb	(818)	MOVW	R11,n-8(SP)
 00102290: 39400122	(820)	MOVBU	0(R9),R2
 00102294: 7102005f	(821)	CMPW	$128,R2,
 00102298: 5400014a	(821)	BGE	,1022c0(BRANCH)
 0010229c: 6b1f005f	(822)	CMPW	$0,R2,
 001022a0: 54000081	(822)	BNE	,1022b0(BRANCH)
 001022a4: 93407d60	(823)	MOVW	R11,R0
 001022a8: f84307fe	(823)	MOV	(R31)48!,R30
 001022ac: d65f03c0	(823)	RET	,0(R30)
 001022b0: 91000529	(824)	ADD	$1,R9,R9
 001022b4: 1100056b	(827)	ADDW	$1,R11,R11
 001022b8: b9002beb	(827)	MOVW	R11,n-8(SP)
 001022bc: 17fffff5	(820)	B	,102290(BRANCH)
 001022c0: 910093e0	(826)	MOV	$rune-12(SP),R0
 001022c4: f9001fe9	(826)	MOV	R9,s+0(FP)
 001022c8: f9000be9	(826)	MOV	R9,16(R31)
 001022cc: 9400002d	(826)	BL	,chartorune+0x102380(BRANCH)
 001022d0: f9401fe9	(826)	MOV	s+0(FP),R9
 001022d4: b9802beb	(826)	MOVW	n-8(SP),R11
 001022d8: 8b000129	(826)	ADD	R0,R9,R9
 001022dc: 1100056b	(827)	ADDW	$1,R11,R11
 001022e0: b9002beb	(827)	MOVW	R11,n-8(SP)
 001022e4: 17ffffeb	(820)	B	,102290(BRANCH)

 001022e8:		(812)	TEXT	strlen+0(SB),R0,$24
 001022e8: f81e0ffe	(812)	MOV	R30,-32(R31)!
 001022ec: f90017e0	(815)	MOV	R0,s+0(FP)
 001022f0: b90013ff	(815)	MOVW	$0,16(R31)
 001022f4: 94000005	(815)	BL	,strchr+0x102308(BRANCH)
 001022f8: f94017e9	(815)	MOV	s+0(FP),R9
 001022fc: cb090000	(815)	SUB	R9,R0
 00102300: f84207fe	(815)	MOV	(R31)32!,R30
 00102304: d65f03c0	(815)	RET	,0(R30)

 00102308:		(812)	TEXT	strchr+0(SB),R0,$8
 00102308: d10043ff	(812)	SUB	$16,R31
 0010230c: b98023ea	(812)	MOVW	c+8(FP),R10
 00102310: aa0003e9	(812)	MOV	R0,R9
 00102314: 93401d4b	(814)	MOVB	R10,R11
 00102318: 6b1f015f	(817)	CMPW	$0,R10,
 0010231c: 54000121	(817)	BNE	,102340(BRANCH)
 00102320: aa0903e4	(818)	MOV	R9,R4
 00102324: 91000529	(818)	ADD	$1,R9,R9
 00102328: 39800084	(818)	MOVB	0(R4),R4
 0010232c: 6b1f009f	(818)	CMPW	$0,R4,
 00102330: 54ffff81	(818)	BNE	,102320(BRANCH)
 00102334: d1000520	(820)	SUB	$1,R9,R0
 00102338: 910043ff	(820)	ADD	$16,R31
 0010233c: d65f03c0	(820)	RET	,0(R30)
 00102340: aa0903e3	(823)	MOV	R9,R3
 00102344: 91000529	(823)	ADD	$1,R9,R9
 00102348: 39800063	(823)	MOVB	0(R3),R3
 0010234c: 93401c6a	(823)	MOVB	R3,R10
 00102350: 6b1f007f	(823)	CMPW	$0,R3,
 00102354: 54000100	(823)	BEQ	,102374(BRANCH)
 00102358: 93401d42	(824)	MOVB	R10,R2
 0010235c: 93401d64	(824)	MOVB	R11,R4
 00102360: 6b04005f	(824)	CMPW	R4,R2,
 00102364: 54fffee1	(824)	BNE	,102340(BRANCH)
 00102368: d1000520	(825)	SUB	$1,R9,R0
 0010236c: 910043ff	(825)	ADD	$16,R31
 00102370: d65f03c0	(825)	RET	,0(R30)
 00102374: d2800000	(826)	MOV	$0,R0
 00102378: 910043ff	(826)	ADD	$16,R31
 0010237c: d65f03c0	(826)	RET	,0(R30)

 00102380:		(834)	TEXT	chartorune+0(SB),R0,$24
 00102380: d10083ff	(834)	SUB	$32,R31
 00102384: 529fffad	(834)	MOVW	$65533,R13
 00102388: f9401beb	(834)	MOV	str+8(FP),R11
 0010238c: aa0003ec	(834)	MOV	R0,R12
 00102390: 39400162	(847)	MOVBU	0(R11),R2
 00102394: b90013e2	(847)	MOVW	R2,c-16(SP)
 00102398: b98013e4	(848)	MOVW	c-16(SP),R4
 0010239c: 7102009f	(848)	CMPW	$128,R4,
 001023a0: 540000ca	(848)	BGE	,1023b8(BRANCH)
 001023a4: b94013e3	(849)	MOVWU	c-16(SP),R3
 001023a8: b9000183	(849)	MOVWU	R3,0(R12)
 001023ac: 98017300	(850)	MOVW	$1,R0
 001023b0: 910083ff	(850)	ADD	$32,R31
 001023b4: d65f03c0	(850)	RET	,0(R30)
 001023b8: b94013e5	(852)	MOVWU	c-16(SP),R5
 001023bc: 2a0503ea	(852)	MOVWU	R5,R10
 001023c0: 98017269	(854)	MOVW	$1,R9
 001023c4: 7100113f	(854)	CMPW	$4,R9,
 001023c8: 5400028a	(854)	BGE	,102418(BRANCH)
 001023cc: d37ef523	(855)	LSL	$2,R9,R3
 001023d0: 910043e4	(855)	MOV	$c-16(SP),R4
 001023d4: 8b040063	(855)	ADD	R4,R3
 001023d8: 8b0b0124	(855)	ADD	R11,R9,R4
 001023dc: 39400084	(855)	MOVBU	0(R4),R4
 001023e0: b9000064	(855)	MOVW	R4,0(R3)
 001023e4: d37ef521	(856)	LSL	$2,R9,R1
 001023e8: 910043e2	(856)	MOV	$c-16(SP),R2
 001023ec: 8b020021	(856)	ADD	R2,R1
 001023f0: b9800022	(856)	MOVW	0(R1),R2
 001023f4: 52190042	(856)	EORW	$128,R2
 001023f8: b9000022	(856)	MOVW	R2,0(R1)
 001023fc: d37ef525	(857)	LSL	$2,R9,R5
 00102400: 910043e1	(857)	MOV	$c-16(SP),R1
 00102404: 8b0100a5	(857)	ADD	R1,R5
 00102408: b98000a5	(857)	MOVW	0(R5),R5
 0010240c: 121a04a5	(857)	ANDW	$192,R5
 00102410: 6b1f00bf	(857)	CMPW	$0,R5,
 00102414: 540000c0	(857)	BEQ	,10242c(BRANCH)
 00102418: 2a0d03e3	(878)	MOVWU	R13,R3
 0010241c: b9000183	(878)	MOVWU	R3,0(R12)
 00102420: 98016f60	(879)	MOVW	$1,R0
 00102424: 910083ff	(879)	ADD	$32,R31
 00102428: d65f03c0	(879)	RET	,0(R30)
 0010242c: d37ef523	(859)	LSL	$2,R9,R3
 00102430: 910043e5	(859)	MOV	$c-16(SP),R5
 00102434: 8b050063	(859)	ADD	R5,R3
 00102438: b9400063	(859)	MOVWU	0(R3),R3
 0010243c: 2a0a03e2	(859)	MOVWU	R10,R2
 00102440: 531a6442	(859)	LSLW	$6,R2
 00102444: 2a030043	(859)	ORRW	R3,R2,R3
 00102448: 2a0303ea	(859)	MOVWU	R3,R10
 0010244c: 98016fc5	(860)	MOVW	$6,R5
 00102450: 4b0900a5	(860)	SUBW	R9,R5,R5
 00102454: 98016dc6	(860)	MOVW	$1,R6
 00102458: 1ac520c5	(860)	LSLW	R5,R6,R5
 0010245c: 510004a5	(860)	SUBW	$1,R5
 00102460: 52001ca5	(860)	EORW	$255,R5
 00102464: b98013e1	(860)	MOVW	c-16(SP),R1
 00102468: 6b05003f	(860)	CMPW	R5,R1,
 0010246c: 5400074a	(860)	BGE	,102554(BRANCH)
 00102470: 531f7924	(861)	LSLW	$1,R9,R4
 00102474: 0b040123	(861)	ADDW	R4,R9,R3
 00102478: 531f7863	(861)	LSLW	$1,R3,R3
 0010247c: 4b090063	(861)	SUBW	R9,R3
 00102480: 11001863	(861)	ADDW	$6,R3
 00102484: 1ac320c3	(861)	LSLW	R3,R6,R3
 00102488: 51000463	(861)	SUBW	$1,R3
 0010248c: 2a0a03e2	(861)	MOVWU	R10,R2
 00102490: 0a030043	(861)	ANDW	R3,R2,R3
 00102494: 2a0303ea	(861)	MOVWU	R3,R10
 00102498: 7100053f	(862)	CMPW	$1,R9,
 0010249c: 54000361	(862)	BNE	,102508(BRANCH)
 001024a0: b98013e2	(863)	MOVW	c-16(SP),R2
 001024a4: 7103005f	(863)	CMPW	$192,R2,
 001024a8: 54fffb8b	(863)	BLT	,102418(BRANCH)
 001024ac: 2a0a03e4	(863)	MOVWU	R10,R4
 001024b0: 7101fc9f	(863)	CMPW	$127,R4,
 001024b4: 54fffb29	(863)	BLS	,102418(BRANCH)
 001024b8: 7100093f	(867)	CMPW	$2,R9,
 001024bc: 540000a1	(867)	BNE	,1024d0(BRANCH)
 001024c0: 2a0a03e1	(867)	MOVWU	R10,R1
 001024c4: 18016c31 6b11003f(867)	CMPW	$55296,R1,
 001024cc: 540000c2	(867)	BHS	,1024e4(BRANCH)
 001024d0: 2a0a03e2	(869)	MOVWU	R10,R2
 001024d4: b9000182	(869)	MOVWU	R2,0(R12)
 001024d8: 11000520	(870)	ADDW	$1,R9,R0
 001024dc: 910083ff	(870)	ADD	$32,R31
 001024e0: d65f03c0	(870)	RET	,0(R30)
 001024e4: 2a0a03e3	(867)	MOVWU	R10,R3
 001024e8: 18016b31 6b11007f(867)	CMPW	$57343,R3,
 001024f0: 54ffff08	(867)	BHI	,1024d0(BRANCH)
 001024f4: 2a0d03e3	(878)	MOVWU	R13,R3
 001024f8: b9000183	(878)	MOVWU	R3,0(R12)
 001024fc: 98016880	(879)	MOVW	$1,R0
 00102500: 910083ff	(879)	ADD	$32,R31
 00102504: d65f03c0	(879)	RET	,0(R30)
 00102508: 531f7922	(865)	LSLW	$1,R9,R2
 0010250c: 0b020121	(865)	ADDW	R2,R9,R1
 00102510: 531f7821	(865)	LSLW	$1,R1,R1
 00102514: 4b090021	(865)	SUBW	R9,R1
 00102518: 11000421	(865)	ADDW	$1,R1
 0010251c: 1ac120c1	(865)	LSLW	R1,R6,R1
 00102520: 51000421	(865)	SUBW	$1,R1
 00102524: 2a0a03e5	(865)	MOVWU	R10,R5
 00102528: 6b0100bf	(865)	CMPW	R1,R5,
 0010252c: 54fff769	(865)	BLS	,102418(BRANCH)
 00102530: 2a0a03e2	(865)	MOVWU	R10,R2
 00102534: 180168f1 6b11005f(865)	CMPW	$1114111,R2,
 0010253c: 54fffbe9	(865)	BLS	,1024b8(BRANCH)
 00102540: 2a0d03e3	(878)	MOVWU	R13,R3
 00102544: b9000183	(878)	MOVWU	R3,0(R12)
 00102548: 98016620	(879)	MOVW	$1,R0
 0010254c: 910083ff	(879)	ADD	$32,R31
 00102550: d65f03c0	(879)	RET	,0(R30)
 00102554: 11000529	(854)	ADDW	$1,R9,R9
 00102558: 17ffff9b	(854)	B	,1023c4(BRANCH)

 0010255c:		(883)	TEXT	runetochar+0(SB),R0,$24
 0010255c: d10083ff	(883)	SUB	$32,R31
 00102560: f9401be9	(883)	MOV	rune+8(FP),R9
 00102564: 529fffab	(883)	MOVW	$65533,R11
 00102568: aa0003ec	(883)	MOV	R0,R12
 0010256c: b9400125	(888)	MOVWU	0(R9),R5
 00102570: 2a0503ea	(888)	MOVWU	R5,R10
 00102574: 2a0a03e5	(889)	MOVWU	R10,R5
 00102578: 7101fcbf	(889)	CMPW	$127,R5,
 0010257c: 540000c8	(889)	BHI	,102594(BRANCH)
 00102580: 2a0a03e4	(890)	MOVWU	R10,R4
 00102584: 39000184	(890)	MOVB	R4,0(R12)
 00102588: 98016420	(891)	MOVW	$1,R0
 0010258c: 910083ff	(891)	ADD	$32,R31
 00102590: d65f03c0	(891)	RET	,0(R30)
 00102594: 980164e9	(909)	MOVW	$2,R9
 00102598: 7100153f	(909)	CMPW	$5,R9,
 0010259c: 5400088a	(909)	BGE	,1026ac(BRANCH)
 001025a0: 71000d3f	(910)	CMPW	$3,R9,
 001025a4: 540001e1	(910)	BNE	,1025e0(BRANCH)
 001025a8: 2a0a03e2	(911)	MOVWU	R10,R2
 001025ac: 18016531 6b11005f(911)	CMPW	$1114111,R2,
 001025b4: 54000069	(911)	BLS	,1025c0(BRANCH)
 001025b8: 2a0b03e4	(912)	MOVWU	R11,R4
 001025bc: 2a0403ea	(912)	MOVWU	R4,R10
 001025c0: 2a0a03e5	(913)	MOVWU	R10,R5
 001025c4: 18016431 6b1100bf(913)	CMPW	$55296,R5,
 001025cc: 540000a3	(913)	BLO	,1025e0(BRANCH)
 001025d0: 2a0a03e2	(913)	MOVWU	R10,R2
 001025d4: 180163d1 6b11005f(913)	CMPW	$57343,R2,
 001025dc: 54000629	(913)	BLS	,1026a0(BRANCH)
 001025e0: 531f7926	(916)	LSLW	$1,R9,R6
 001025e4: 0b060125	(916)	ADDW	R6,R9,R5
 001025e8: 531f78a5	(916)	LSLW	$1,R5,R5
 001025ec: 4b0900a5	(916)	SUBW	R9,R5
 001025f0: 110004a5	(916)	ADDW	$1,R5
 001025f4: 980160c3	(916)	MOVW	$1,R3
 001025f8: 1ac52065	(916)	LSLW	R5,R3,R5
 001025fc: 510004a5	(916)	SUBW	$1,R5
 00102600: 2a0a03e4	(916)	MOVWU	R10,R4
 00102604: 6b05009f	(916)	CMPW	R5,R4,
 00102608: 540000a9	(916)	BLS	,10261c(BRANCH)
 0010260c: 7100113f	(916)	CMPW	$4,R9,
 00102610: 54000060	(916)	BEQ	,10261c(BRANCH)
 00102614: 11000529	(909)	ADDW	$1,R9,R9
 00102618: 17ffffe0	(909)	B	,102598(BRANCH)
 0010261c: 98015fc3	(917)	MOVW	$8,R3
 00102620: 4b090063	(917)	SUBW	R9,R3,R3
 00102624: 98015f45	(917)	MOVW	$1,R5
 00102628: 1ac320a3	(917)	LSLW	R3,R5,R3
 0010262c: 51000463	(917)	SUBW	$1,R3
 00102630: 52001c63	(917)	EORW	$255,R3
 00102634: 531f7925	(917)	LSLW	$1,R9,R5
 00102638: 0b050121	(917)	ADDW	R5,R9,R1
 0010263c: 531f7821	(917)	LSLW	$1,R1,R1
 00102640: 51001821	(917)	SUBW	$6,R1
 00102644: 2a0a03e2	(917)	MOVWU	R10,R2
 00102648: 1ac12441	(917)	LSRW	R1,R2,R1
 0010264c: 2a010063	(917)	ORRW	R1,R3
 00102650: 39000183	(917)	MOVB	R3,0(R12)
 00102654: 98015dcb	(918)	MOVW	$1,R11
 00102658: 6b09017f	(918)	CMPW	R9,R11,
 0010265c: 540001ca	(918)	BGE	,102694(BRANCH)
 00102660: 8b0c0165	(919)	ADD	R12,R11,R5
 00102664: 4b0b0122	(919)	SUBW	R11,R9,R2
 00102668: 531f7846	(919)	LSLW	$1,R2,R6
 0010266c: 0b060042	(919)	ADDW	R6,R2,R2
 00102670: 531f7842	(919)	LSLW	$1,R2,R2
 00102674: 51001842	(919)	SUBW	$6,R2
 00102678: 2a0a03e1	(919)	MOVWU	R10,R1
 0010267c: 1ac22422	(919)	LSRW	R2,R1,R2
 00102680: 12001442	(919)	ANDW	$63,R2
 00102684: 32190042	(919)	ORRW	$128,R2
 00102688: 390000a2	(919)	MOVB	R2,0(R5)
 0010268c: 1100056b	(918)	ADDW	$1,R11,R11
 00102690: 17fffff2	(918)	B	,102658(BRANCH)
 00102694: 93407d20	(920)	MOVW	R9,R0
 00102698: 910083ff	(920)	ADD	$32,R31
 0010269c: d65f03c0	(920)	RET	,0(R30)
 001026a0: 2a0b03e4	(914)	MOVWU	R11,R4
 001026a4: 2a0403ea	(914)	MOVWU	R4,R10
 001026a8: 17ffffce	(916)	B	,1025e0(BRANCH)
 001026ac: 98015be0	(923)	MOVW	$4,R0
 001026b0: 910083ff	(923)	ADD	$32,R31
 001026b4: d65f03c0	(923)	RET	,0(R30)

 001026b8:		(927)	TEXT	runelen+0(SB),R0,$40
 001026b8: f81d0ffe	(927)	MOV	R30,-48(R31)!
 001026bc: 2a0003e2	(932)	MOVWU	R0,R2
 001026c0: b9002fe2	(932)	MOVWU	R2,rune-4(SP)
 001026c4: 910083e0	(933)	MOV	$str-16(SP),R0
 001026c8: 9100b3e4	(933)	MOV	$rune-4(SP),R4
 001026cc: f9000be4	(933)	MOV	R4,16(R31)
 001026d0: 97ffffa3	(933)	BL	,runetochar+0x10255c(BRANCH)
 001026d4: f84307fe	(933)	MOV	(R31)48!,R30
 001026d8: d65f03c0	(933)	RET	,0(R30)

 001026dc:		(937)	TEXT	runenlen+0(SB),R0,$24
 001026dc: d10083ff	(937)	SUB	$32,R31
 001026e0: b98033ed	(937)	MOVW	nrune+8(FP),R13
 001026e4: aa0003ec	(937)	MOV	R0,R12
 001026e8: 2a1f03ea	(942)	MOVW	$0,R10
 001026ec: 93407da2	(943)	MOVW	R13,R2
 001026f0: 510005ad	(943)	SUBW	$1,R13,R13
 001026f4: 6b1f005f	(943)	CMPW	$0,R2,
 001026f8: 540001a0	(943)	BEQ	,10272c(BRANCH)
 001026fc: aa0c03e2	(944)	MOV	R12,R2
 00102700: 9100118c	(944)	ADD	$4,R12,R12
 00102704: b9400042	(944)	MOVWU	0(R2),R2
 00102708: 2a0203eb	(944)	MOVWU	R2,R11
 0010270c: 2a0b03e5	(945)	MOVWU	R11,R5
 00102710: 7101fcbf	(945)	CMPW	$127,R5,
 00102714: 54000128	(945)	BHI	,102738(BRANCH)
 00102718: 1100054a	(946)	ADDW	$1,R10,R10
 0010271c: 93407da2	(943)	MOVW	R13,R2
 00102720: 510005ad	(943)	SUBW	$1,R13,R13
 00102724: 6b1f005f	(943)	CMPW	$0,R2,
 00102728: 54fffea1	(943)	BNE	,1026fc(BRANCH)
 0010272c: 93407d40	(955)	MOVW	R10,R0
 00102730: 910083ff	(955)	ADD	$32,R31
 00102734: d65f03c0	(955)	RET	,0(R30)
 00102738: 980157c9	(948)	MOVW	$2,R9
 0010273c: 7100153f	(948)	CMPW	$5,R9,
 00102740: 54fffd6a	(948)	BGE	,1026ec(BRANCH)
 00102744: 531f7922	(949)	LSLW	$1,R9,R2
 00102748: 0b020121	(949)	ADDW	R2,R9,R1
 0010274c: 531f7821	(949)	LSLW	$1,R1,R1
 00102750: 4b090021	(949)	SUBW	R9,R1
 00102754: 11000421	(949)	ADDW	$1,R1
 00102758: 980155a4	(949)	MOVW	$1,R4
 0010275c: 1ac12081	(949)	LSLW	R1,R4,R1
 00102760: 51000421	(949)	SUBW	$1,R1
 00102764: 2a0b03e5	(949)	MOVWU	R11,R5
 00102768: 6b0100bf	(949)	CMPW	R1,R5,
 0010276c: 540000a9	(949)	BLS	,102780(BRANCH)
 00102770: 7100113f	(949)	CMPW	$4,R9,
 00102774: 54000060	(949)	BEQ	,102780(BRANCH)
 00102778: 11000529	(948)	ADDW	$1,R9,R9
 0010277c: 17fffff0	(948)	B	,10273c(BRANCH)
 00102780: 0b09014a	(950)	ADDW	R9,R10,R10
 00102784: 17ffffda	(943)	B	,1026ec(BRANCH)

 00102788:		(959)	TEXT	fullrune+0(SB),R0,$8
 00102788: d10043ff	(959)	SUB	$16,R31
 0010278c: b98023eb	(959)	MOVW	n+8(FP),R11
 00102790: 6b1f017f	(964)	CMPW	$0,R11,
 00102794: 5400008c	(964)	BGT	,1027a4(BRANCH)
 00102798: 2a1f03e0	(965)	MOVW	$0,R0
 0010279c: 910043ff	(965)	ADD	$16,R31
 001027a0: d65f03c0	(965)	RET	,0(R30)
 001027a4: 39400003	(966)	MOVBU	0(R0),R3
 001027a8: 2a0303ea	(966)	MOVWU	R3,R10
 001027ac: 2a0a03e5	(967)	MOVWU	R10,R5
 001027b0: 710200bf	(967)	CMPW	$128,R5,
 001027b4: 54000082	(967)	BHS	,1027c4(BRANCH)
 001027b8: 980152a0	(968)	MOVW	$1,R0
 001027bc: 910043ff	(968)	ADD	$16,R31
 001027c0: d65f03c0	(968)	RET	,0(R30)
 001027c4: 980153e9	(969)	MOVW	$3,R9
 001027c8: 7100153f	(969)	CMPW	$5,R9,
 001027cc: 540002ea	(969)	BGE	,102828(BRANCH)
 001027d0: 98015223	(970)	MOVW	$8,R3
 001027d4: 4b090063	(970)	SUBW	R9,R3,R3
 001027d8: 980151a4	(970)	MOVW	$1,R4
 001027dc: 1ac32083	(970)	LSLW	R3,R4,R3
 001027e0: 51000463	(970)	SUBW	$1,R3
 001027e4: 52001c63	(970)	EORW	$255,R3
 001027e8: 2a0a03e4	(970)	MOVWU	R10,R4
 001027ec: 6b03009f	(970)	CMPW	R3,R4,
 001027f0: 54000182	(970)	BHS	,102820(BRANCH)
 001027f4: 51000521	(971)	SUBW	$1,R9,R1
 001027f8: 6b01017f	(971)	CMPW	R1,R11,
 001027fc: 540000ab	(971)	BLT	,102810(BRANCH)
 00102800: 98015061	(971)	MOVW	$1,R1
 00102804: 93407c20	(971)	MOVW	R1,R0
 00102808: 910043ff	(971)	ADD	$16,R31
 0010280c: d65f03c0	(971)	RET	,0(R30)
 00102810: 2a1f03e1	(971)	MOVW	$0,R1
 00102814: 93407c20	(971)	MOVW	R1,R0
 00102818: 910043ff	(971)	ADD	$16,R31
 0010281c: d65f03c0	(971)	RET	,0(R30)
 00102820: 11000529	(969)	ADDW	$1,R9,R9
 00102824: 17ffffe9	(969)	B	,1027c8(BRANCH)
 00102828: 7100117f	(972)	CMPW	$4,R11,
 0010282c: 540000ab	(972)	BLT	,102840(BRANCH)
 00102830: 98014ee1	(972)	MOVW	$1,R1
 00102834: 93407c20	(972)	MOVW	R1,R0
 00102838: 910043ff	(972)	ADD	$16,R31
 0010283c: d65f03c0	(972)	RET	,0(R30)
 00102840: 2a1f03e1	(972)	MOVW	$0,R1
 00102844: 93407c20	(972)	MOVW	R1,R0
 00102848: 910043ff	(972)	ADD	$16,R31
 0010284c: d65f03c0	(972)	RET	,0(R30)

 00102850:		(952)	TEXT	_fmtinstall<>+0(SB),R0,$24
 00102850: d10083ff	(952)	SUB	$32,R31
 00102854: f9401bec	(952)	MOV	f+8(FP),R12
 00102858: 93407c0a	(952)	MOVW	R0,R10
 0010285c: 6b1f001f	(956)	CMPW	$0,R0,
 00102860: 540004ad	(956)	BLE	,1028f4(BRANCH)
 00102864: 7140401f	(956)	CMPW	$65536,R0,
 00102868: 5400046a	(956)	BGE	,1028f4(BRANCH)
 0010286c: eb1f019f	(958)	CMP	$0,R12,
 00102870: 54000041	(958)	BNE	,102878(BRANCH)
 00102874: 58014f2c	(959)	MOV	$_badfmt+0(SB),R12
 00102878: b98bc385	(961)	MOVW	fmtalloc+0(SB),R5
 0010287c: d37ceca5	(961)	LSL	$4,R5
 00102880: 912f0386	(961)	MOV	$fmtalloc+0(SB),R6
 00102884: 910020c6	(961)	ADD	$8,R6,R6
 00102888: 8b0600ab	(961)	ADD	R6,R5,R11
 0010288c: 912f0382	(962)	MOV	$fmtalloc+0(SB),R2
 00102890: 91002049	(962)	ADD	$8,R2,R9
 00102894: eb0b013f	(962)	CMP	R11,R9,
 00102898: 54000082	(962)	BHS	,1028a8(BRANCH)
 0010289c: b9800121	(963)	MOVW	0(R9),R1
 001028a0: 6b0a003f	(963)	CMPW	R10,R1,
 001028a4: 54000241	(963)	BNE	,1028ec(BRANCH)
 001028a8: 912f0382	(966)	MOV	$fmtalloc+0(SB),R2
 001028ac: 91102042	(966)	ADD	$1032,R2,R2
 001028b0: eb02013f	(966)	CMP	R2,R9,
 001028b4: 54000081	(966)	BNE	,1028c4(BRANCH)
 001028b8: 12800000	(967)	MOVW	$-1,R0
 001028bc: 910083ff	(967)	ADD	$32,R31
 001028c0: d65f03c0	(967)	RET	,0(R30)
 001028c4: f900052c	(969)	MOV	R12,8(R9)
 001028c8: eb0b013f	(970)	CMP	R11,R9,
 001028cc: 540000a1	(970)	BNE	,1028e0(BRANCH)
 001028d0: b98bc383	(971)	MOVW	fmtalloc+0(SB),R3
 001028d4: 11000463	(971)	ADDW	$1,R3
 001028d8: b90bc383	(971)	MOVW	R3,fmtalloc+0(SB)
 001028dc: b900012a	(972)	MOVW	R10,0(R9)
 001028e0: 2a1f03e0	(975)	MOVW	$0,R0
 001028e4: 910083ff	(975)	ADD	$32,R31
 001028e8: d65f03c0	(975)	RET	,0(R30)
 001028ec: 91004129	(962)	ADD	$16,R9,R9
 001028f0: 17ffffe9	(962)	B	,102894(BRANCH)
 001028f4: 12800000	(957)	MOVW	$-1,R0
 001028f8: 910083ff	(957)	ADD	$32,R31
 001028fc: d65f03c0	(957)	RET	,0(R30)

 00102900:		(979)	TEXT	fmtinstall+0(SB),R0,$24
 00102900: f81e0ffe	(979)	MOV	R30,-32(R31)!
 00102904: b9002be0	(979)	MOVW	R0,c+0(FP)
 00102908: 94000a0d	(983)	BL	,_fmtlock+0x10513c(BRANCH)
 0010290c: b9802be0	(983)	MOVW	c+0(FP),R0
 00102910: f9401be9	(983)	MOV	f+8(FP),R9
 00102914: f9000be9	(984)	MOV	R9,16(R31)
 00102918: 97ffffce	(984)	BL	,_fmtinstall+0x102850(BRANCH)
 0010291c: b9001fe0	(984)	MOVW	R0,ret-4(SP)
 00102920: 94000a0c	(985)	BL	,_fmtunlock+0x105150(BRANCH)
 00102924: b9801fe0	(985)	MOVW	ret-4(SP),R0
 00102928: f84207fe	(986)	MOV	(R31)32!,R30
 0010292c: d65f03c0	(986)	RET	,0(R30)

 00102930:		(990)	TEXT	fmtfmt<>+0(SB),R0,$40
 00102930: f81d0ffe	(990)	MOV	R30,-48(R31)!
 00102934: 93407c0b	(990)	MOVW	R0,R11
 00102938: b9003be0	(990)	MOVW	R0,c+0(FP)
 0010293c: b98bc383	(994)	MOVW	fmtalloc+0(SB),R3
 00102940: d37cec63	(994)	LSL	$4,R3
 00102944: 912f0384	(994)	MOV	$fmtalloc+0(SB),R4
 00102948: 91002084	(994)	ADD	$8,R4,R4
 0010294c: 8b04006a	(994)	ADD	R4,R3,R10
 00102950: 912f0385	(995)	MOV	$fmtalloc+0(SB),R5
 00102954: 910020a9	(995)	ADD	$8,R5,R9
 00102958: eb0a013f	(995)	CMP	R10,R9,
 0010295c: 54000182	(995)	BHS	,10298c(BRANCH)
 00102960: b9800124	(996)	MOVW	0(R9),R4
 00102964: 6b0b009f	(996)	CMPW	R11,R4,
 00102968: 540000e1	(996)	BNE	,102984(BRANCH)
 0010296c: f9400525	(997)	MOV	8(R9),R5
 00102970: eb1f00bf	(997)	CMP	$0,R5,
 00102974: 54ffffc0	(997)	BEQ	,10296c(BRANCH)
 00102978: f9400520	(999)	MOV	8(R9),R0
 0010297c: f84307fe	(999)	MOV	(R31)48!,R30
 00102980: d65f03c0	(999)	RET	,0(R30)
 00102984: 91004129	(995)	ADD	$16,R9,R9
 00102988: 17fffff4	(995)	B	,102958(BRANCH)
 0010298c: 940009ec	(1003)	BL	,_fmtlock+0x10513c(BRANCH)
 00102990: b9803bea	(1003)	MOVW	c+0(FP),R10
 00102994: 910b4389	(1004)	MOV	$knownfmt<>+0(SB),R9
 00102998: b9800123	(1004)	MOVW	0(R9),R3
 0010299c: 6b1f007f	(1004)	CMPW	$0,R3,
 001029a0: 54000240	(1004)	BEQ	,1029e8(BRANCH)
 001029a4: b9800122	(1005)	MOVW	0(R9),R2
 001029a8: 6b0a005f	(1005)	CMPW	R10,R2,
 001029ac: 54000161	(1005)	BNE	,1029d8(BRANCH)
 001029b0: b9800120	(1006)	MOVW	0(R9),R0
 001029b4: f90017e9	(1006)	MOV	R9,p-8(SP)
 001029b8: f9400521	(1006)	MOV	8(R9),R1
 001029bc: f9000be1	(1006)	MOV	R1,16(R31)
 001029c0: 97ffffa4	(1006)	BL	,_fmtinstall+0x102850(BRANCH)
 001029c4: 940009e3	(1007)	BL	,_fmtunlock+0x105150(BRANCH)
 001029c8: f94017e9	(1007)	MOV	p-8(SP),R9
 001029cc: f9400520	(1008)	MOV	8(R9),R0
 001029d0: f84307fe	(1008)	MOV	(R31)48!,R30
 001029d4: d65f03c0	(1008)	RET	,0(R30)
 001029d8: 91004129	(1004)	ADD	$16,R9,R9
 001029dc: b9800123	(1004)	MOVW	0(R9),R3
 001029e0: 6b1f007f	(1004)	CMPW	$0,R3,
 001029e4: 54fffe01	(1004)	BNE	,1029a4(BRANCH)
 001029e8: 940009da	(1010)	BL	,_fmtunlock+0x105150(BRANCH)
 001029ec: 58014360	(1012)	MOV	$_badfmt+0(SB),R0
 001029f0: f84307fe	(1012)	MOV	(R31)48!,R30
 001029f4: d65f03c0	(1012)	RET	,0(R30)

 001029f8:		(1016)	TEXT	_fmtdispatch+0(SB),R0,$56
 001029f8: f81c0ffe	(1016)	MOV	R30,-64(R31)!
 001029fc: b9805bed	(1016)	MOVW	isrunes+16(FP),R13
 00102a00: f9402be9	(1016)	MOV	fmt+8(FP),R9
 00102a04: aa0003ea	(1016)	MOV	R0,R10
 00102a08: b9804402	(1023)	MOVW	68(R0),R2
 00102a0c: b9002fe2	(1023)	MOVW	R2,w-20(SP)
 00102a10: b9804802	(1024)	MOVW	72(R0),R2
 00102a14: b9002be2	(1024)	MOVW	R2,p-24(SP)
 00102a18: b9404c02	(1025)	MOVWU	76(R0),R2
 00102a1c: b90027e2	(1025)	MOVW	R2,fl-28(SP)
 00102a20: b9004c1f	(1027)	MOVW	$0,76(R0)
 00102a24: aa0003e4	(1028)	MOV	R0,R4
 00102a28: f90027e0	(1028)	MOV	R0,f+0(FP)
 00102a2c: b900481f	(1028)	MOVW	$0,72(R0)
 00102a30: 2a1f03e1	(1028)	MOVW	$0,R1
 00102a34: b9004401	(1028)	MOVW	R1,68(R0)
 00102a38: 6b1f01bf	(1031)	CMPW	$0,R13,
 00102a3c: 54000640	(1031)	BEQ	,102b04(BRANCH)
 00102a40: b9400122	(1032)	MOVWU	0(R9),R2
 00102a44: 2a0203eb	(1032)	MOVWU	R2,R11
 00102a48: 91001129	(1033)	ADD	$4,R9,R9
 00102a4c: f9002be9	(1033)	MOV	R9,fmt+8(FP)
 00102a50: aa0a03e1	(1038)	MOV	R10,R1
 00102a54: 93407d63	(1038)	MOVW	R11,R3
 00102a58: b900414b	(1038)	MOVW	R11,64(R10)
 00102a5c: 2a0b03e5	(1093)	MOVWU	R11,R5
 00102a60: 7100ccbf	(1093)	CMPW	$51,R5,
 00102a64: 5400114c	(1093)	BGT	,102c8c(BRANCH)
 00102a68: 7100ccbf	(1093)	CMPW	$51,R5,
 00102a6c: 54000ce0	(1093)	BEQ	,102c08(BRANCH)
 00102a70: 7100c0bf	(1093)	CMPW	$48,R5,
 00102a74: 5400102c	(1093)	BGT	,102c78(BRANCH)
 00102a78: 7100c0bf	(1093)	CMPW	$48,R5,
 00102a7c: 54000b40	(1093)	BEQ	,102be4(BRANCH)
 00102a80: 6b1f00bf	(1093)	CMPW	$0,R5,
 00102a84: 54000ac0	(1093)	BEQ	,102bdc(BRANCH)
 00102a88: 7100a8bf	(1093)	CMPW	$42,R5,
 00102a8c: 54000600	(1093)	BEQ	,102b4c(BRANCH)
 00102a90: 7100b8bf	(1093)	CMPW	$46,R5,
 00102a94: 54000520	(1093)	BEQ	,102b38(BRANCH)
 00102a98: 93407d60	(1095)	MOVW	R11,R0
 00102a9c: 97ffffa5	(1095)	BL	,fmtfmt+0x102930(BRANCH)
 00102aa0: f94027e9	(1095)	MOV	f+0(FP),R9
 00102aa4: f9000be0	(1095)	MOV	R0,.safe-48(SP)
 00102aa8: aa0903e0	(1095)	MOV	R9,R0
 00102aac: f9400be1	(1095)	MOV	.safe-48(SP),R1
 00102ab0: d63f0020	(1095)	BL	,0(R1)
 00102ab4: b9805bed	(1095)	MOVW	isrunes+16(FP),R13
 00102ab8: f94027ea	(1095)	MOV	f+0(FP),R10
 00102abc: f9402be9	(1095)	MOV	fmt+8(FP),R9
 00102ac0: 93407c04	(1096)	MOVW	R0,R4
 00102ac4: 6b1f001f	(1096)	CMPW	$0,R0,
 00102ac8: 5400016a	(1096)	BGE	,102af4(BRANCH)
 00102acc: d2800009	(1097)	MOV	$0,R9
 00102ad0: b9802fe2	(1106)	MOVW	w-20(SP),R2
 00102ad4: b9004542	(1106)	MOVW	R2,68(R10)
 00102ad8: b9802be1	(1107)	MOVW	p-24(SP),R1
 00102adc: b9004941	(1107)	MOVW	R1,72(R10)
 00102ae0: b94027e5	(1108)	MOVWU	fl-28(SP),R5
 00102ae4: b9004d45	(1108)	MOVW	R5,76(R10)
 00102ae8: aa0903e0	(1109)	MOV	R9,R0
 00102aec: f84407fe	(1109)	MOV	(R31)64!,R30
 00102af0: d65f03c0	(1109)	RET	,0(R30)
 00102af4: 6b1f001f	(1100)	CMPW	$0,R0,
 00102af8: 54fffec0	(1100)	BEQ	,102ad0(BRANCH)
 00102afc: 6b1f01bf	(1031)	CMPW	$0,R13,
 00102b00: 54fffa01	(1031)	BNE	,102a40(BRANCH)
 00102b04: 9100f3e0	(1035)	MOV	$rune-4(SP),R0
 00102b08: f9002be9	(1035)	MOV	R9,fmt+8(FP)
 00102b0c: f9000be9	(1035)	MOV	R9,16(R31)
 00102b10: 97fffe1c	(1035)	BL	,chartorune+0x102380(BRANCH)
 00102b14: f9402be9	(1035)	MOV	fmt+8(FP),R9
 00102b18: b9805bed	(1035)	MOVW	isrunes+16(FP),R13
 00102b1c: f94027ea	(1035)	MOV	f+0(FP),R10
 00102b20: 8b090000	(1035)	ADD	R9,R0,R0
 00102b24: aa0003e9	(1035)	MOV	R0,R9
 00102b28: f9002be0	(1035)	MOV	R0,fmt+8(FP)
 00102b2c: b9403fe4	(1036)	MOVWU	rune-4(SP),R4
 00102b30: 2a0403eb	(1036)	MOVWU	R4,R11
 00102b34: 17ffffc7	(1038)	B	,102a50(BRANCH)
 00102b38: b9404d42	(1044)	MOVWU	76(R10),R2
 00102b3c: 18013931 2a110042(1044)	ORRW	$5,R2
 00102b44: b9004d42	(1044)	MOVW	R2,76(R10)
 00102b48: 17ffffbc	(1031)	B	,102a38(BRANCH)
 00102b4c: f9401d44	(1079)	MOV	56(R10),R4
 00102b50: 91002084	(1079)	ADD	$8,R4
 00102b54: f9001d44	(1079)	MOV	R4,56(R10)
 00102b58: f9401d41	(1079)	MOV	56(R10),R1
 00102b5c: b89f802c	(1079)	MOVW	-8(R1),R12
 00102b60: 6b1f019f	(1080)	CMPW	$0,R12,
 00102b64: 540001ea	(1080)	BGE	,102ba0(BRANCH)
 00102b68: b9404d45	(1085)	MOVWU	76(R10),R5
 00102b6c: 121e00a5	(1085)	ANDW	$4,R5
 00102b70: 6b1f00bf	(1085)	CMPW	$0,R5,
 00102b74: 540000e0	(1085)	BEQ	,102b90(BRANCH)
 00102b78: b9404d41	(1086)	MOVWU	76(R10),R1
 00102b7c: 121d7821	(1086)	ANDW	$4294967291,R1
 00102b80: b9004d41	(1086)	MOVW	R1,76(R10)
 00102b84: aa0a03e4	(1087)	MOV	R10,R4
 00102b88: b900495f	(1087)	MOVW	$0,72(R10)
 00102b8c: 17ffffab	(1031)	B	,102a38(BRANCH)
 00102b90: 4b0c03ec	(1090)	NEGW	R12,R12
 00102b94: b9404d42	(1091)	MOVWU	76(R10),R2
 00102b98: 321f0042	(1091)	ORRW	$2,R2
 00102b9c: b9004d42	(1091)	MOVW	R2,76(R10)
 00102ba0: b9404d44	(1070)	MOVWU	76(R10),R4
 00102ba4: 12000084	(1070)	ANDW	$1,R4
 00102ba8: 6b1f009f	(1070)	CMPW	$0,R4,
 00102bac: 540000c0	(1070)	BEQ	,102bc4(BRANCH)
 00102bb0: b9404d45	(1071)	MOVWU	76(R10),R5
 00102bb4: 321e00a5	(1071)	ORRW	$4,R5
 00102bb8: b9004d45	(1071)	MOVW	R5,76(R10)
 00102bbc: b900494c	(1072)	MOVW	R12,72(R10)
 00102bc0: 17ffff9e	(1031)	B	,102a38(BRANCH)
 00102bc4: b9404d44	(1074)	MOVWU	76(R10),R4
 00102bc8: 32000084	(1074)	ORRW	$1,R4
 00102bcc: b9004d44	(1074)	MOVW	R4,76(R10)
 00102bd0: 93407d84	(1075)	MOVW	R12,R4
 00102bd4: b900454c	(1075)	MOVW	R12,68(R10)
 00102bd8: 17ffff98	(1031)	B	,102a38(BRANCH)
 00102bdc: d2800009	(1041)	MOV	$0,R9
 00102be0: 17ffffbc	(1106)	B	,102ad0(BRANCH)
 00102be4: b9404d45	(1047)	MOVWU	76(R10),R5
 00102be8: 120000a5	(1047)	ANDW	$1,R5
 00102bec: 6b1f00bf	(1047)	CMPW	$0,R5,
 00102bf0: 540000c1	(1047)	BNE	,102c08(BRANCH)
 00102bf4: aa0a03e4	(1048)	MOV	R10,R4
 00102bf8: b9404d41	(1048)	MOVWU	76(R10),R1
 00102bfc: 321a0021	(1048)	ORRW	$64,R1
 00102c00: b9004d41	(1048)	MOVW	R1,76(R10)
 00102c04: 17ffff8d	(1031)	B	,102a38(BRANCH)
 00102c08: 2a1f03ec	(1054)	MOVW	$0,R12
 00102c0c: 2a0b03e4	(1055)	MOVWU	R11,R4
 00102c10: 7100c09f	(1055)	CMPW	$48,R4,
 00102c14: 54000083	(1055)	BLO	,102c24(BRANCH)
 00102c18: 2a0b03e1	(1055)	MOVWU	R11,R1
 00102c1c: 7100e43f	(1055)	CMPW	$57,R1,
 00102c20: 540000e9	(1055)	BLS	,102c3c(BRANCH)
 00102c24: 6b1f01bf	(1065)	CMPW	$0,R13,
 00102c28: 54000060	(1065)	BEQ	,102c34(BRANCH)
 00102c2c: d1001129	(1066)	SUB	$4,R9,R9
 00102c30: 17ffffdc	(1070)	B	,102ba0(BRANCH)
 00102c34: d1000529	(1068)	SUB	$1,R9,R9
 00102c38: 17ffffda	(1070)	B	,102ba0(BRANCH)
 00102c3c: 531e7582	(1056)	LSLW	$2,R12,R2
 00102c40: 0b020183	(1056)	ADDW	R2,R12,R3
 00102c44: 531f7863	(1056)	LSLW	$1,R3,R3
 00102c48: 0b0b0063	(1056)	ADDW	R11,R3
 00102c4c: 5100c06c	(1056)	SUBW	$48,R3,R12
 00102c50: 6b1f01bf	(1057)	CMPW	$0,R13,
 00102c54: 540000a0	(1057)	BEQ	,102c68(BRANCH)
 00102c58: b9400123	(1058)	MOVWU	0(R9),R3
 00102c5c: 2a0303eb	(1058)	MOVWU	R3,R11
 00102c60: 91001129	(1059)	ADD	$4,R9,R9
 00102c64: 17ffffea	(1055)	B	,102c0c(BRANCH)
 00102c68: 39800121	(1061)	MOVB	0(R9),R1
 00102c6c: 2a0103eb	(1061)	MOVWU	R1,R11
 00102c70: 91000529	(1062)	ADD	$1,R9,R9
 00102c74: 17ffffe6	(1055)	B	,102c0c(BRANCH)
 00102c78: 7100c4bf	(1093)	CMPW	$49,R5,
 00102c7c: 54fffc60	(1093)	BEQ	,102c08(BRANCH)
 00102c80: 7100c8bf	(1093)	CMPW	$50,R5,
 00102c84: 54fff0a1	(1093)	BNE	,102a98(BRANCH)
 00102c88: 17ffffe0	(1054)	B	,102c08(BRANCH)
 00102c8c: 5100d0a5	(1093)	SUBW	$52,R5
 00102c90: 710014bf	(1093)	CMPW	$5,R5,
 00102c94: 54fff028	(1093)	BHI	,102a98(BRANCH)
 00102c98: 10000082 b8a57851 8b020231 d61f0220(1093)	CASE	R5,R2
 00102ca8: ffffff60	(1093)	BCASE	,102c08(BRANCH)
 00102cac: ffffff60	(1093)	BCASE	,102c08(BRANCH)
 00102cb0: ffffff60	(1093)	BCASE	,102c08(BRANCH)
 00102cb4: ffffff60	(1093)	BCASE	,102c08(BRANCH)
 00102cb8: ffffff60	(1093)	BCASE	,102c08(BRANCH)
 00102cbc: ffffff60	(1093)	BCASE	,102c08(BRANCH)
 00102cc0: 17ffff76	(1095)	B	,102a98(BRANCH)

 00102cc4:		(936)	TEXT	xadd<>+0(SB),R0,$24
 00102cc4: d10083ff	(936)	SUB	$32,R31
 00102cc8: b98033e9	(936)	MOVW	n+8(FP),R9
 00102ccc: b9803bea	(936)	MOVW	v+16(FP),R10
 00102cd0: aa0003eb	(936)	MOV	R0,R11
 00102cd4: 6b1f013f	(941)	CMPW	$0,R9,
 00102cd8: 5400030b	(941)	BLT	,102d38(BRANCH)
 00102cdc: 7100453f	(941)	CMPW	$17,R9,
 00102ce0: 540002ca	(941)	BGE	,102d38(BRANCH)
 00102ce4: 8b000129	(943)	ADD	R0,R9,R9
 00102ce8: eb0b013f	(943)	CMP	R11,R9,
 00102cec: 540001c3	(943)	BLO	,102d24(BRANCH)
 00102cf0: 39800121	(944)	MOVB	0(R9),R1
 00102cf4: 0b01014a	(944)	ADDW	R1,R10,R10
 00102cf8: 7100e55f	(945)	CMPW	$57,R10,
 00102cfc: 540000ac	(945)	BGT	,102d10(BRANCH)
 00102d00: 3900012a	(946)	MOVB	R10,0(R9)
 00102d04: 2a1f03e0	(947)	MOVW	$0,R0
 00102d08: 910083ff	(947)	ADD	$32,R31
 00102d0c: d65f03c0	(947)	RET	,0(R30)
 00102d10: 58012942	(949)	MOV	$48,R2
 00102d14: 39000122	(949)	MOVB	R2,0(R9)
 00102d18: 980127aa	(950)	MOVW	$1,R10
 00102d1c: d1000529	(943)	SUB	$1,R9,R9
 00102d20: 17fffff2	(943)	B	,102ce8(BRANCH)
 00102d24: d2800621	(952)	MOV	$49,R1
 00102d28: 39000161	(952)	MOVB	R1,0(R11)
 00102d2c: 98012700	(953)	MOVW	$1,R0
 00102d30: 910083ff	(953)	ADD	$32,R31
 00102d34: d65f03c0	(953)	RET	,0(R30)
 00102d38: 2a1f03e0	(942)	MOVW	$0,R0
 00102d3c: 910083ff	(942)	ADD	$32,R31
 00102d40: d65f03c0	(942)	RET	,0(R30)

 00102d44:		(957)	TEXT	xsub<>+0(SB),R0,$24
 00102d44: d10083ff	(957)	SUB	$32,R31
 00102d48: b98033e9	(957)	MOVW	n+8(FP),R9
 00102d4c: b9803bea	(957)	MOVW	v+16(FP),R10
 00102d50: aa0003eb	(957)	MOV	R0,R11
 00102d54: 8b000129	(962)	ADD	R0,R9,R9
 00102d58: eb0b013f	(962)	CMP	R11,R9,
 00102d5c: 540001c3	(962)	BLO	,102d94(BRANCH)
 00102d60: 39800123	(963)	MOVB	0(R9),R3
 00102d64: 4b0a006a	(963)	SUBW	R10,R3,R10
 00102d68: 7100c15f	(964)	CMPW	$48,R10,
 00102d6c: 540000ab	(964)	BLT	,102d80(BRANCH)
 00102d70: 3900012a	(965)	MOVB	R10,0(R9)
 00102d74: 2a1f03e0	(966)	MOVW	$0,R0
 00102d78: 910083ff	(966)	ADD	$32,R31
 00102d7c: d65f03c0	(966)	RET	,0(R30)
 00102d80: d2800724	(968)	MOV	$57,R4
 00102d84: 39000124	(968)	MOVB	R4,0(R9)
 00102d88: 9801242a	(969)	MOVW	$1,R10
 00102d8c: d1000529	(962)	SUB	$1,R9,R9
 00102d90: 17fffff2	(962)	B	,102d58(BRANCH)
 00102d94: d2800723	(971)	MOV	$57,R3
 00102d98: 39000163	(971)	MOVB	R3,0(R11)
 00102d9c: 98012380	(972)	MOVW	$1,R0
 00102da0: 910083ff	(972)	ADD	$32,R31
 00102da4: d65f03c0	(972)	RET	,0(R30)

 00102da8:		(976)	TEXT	xdtoa<>+0(SB),R0,$136
 00102da8: f8170ffe	(976)	MOV	R30,-144(R31)!
 00102dac: fd4057e7	(976)	FMOVD	f+16(FP),F7
 00102db0: 980124a9	(983)	MOVW	$6,R9
 00102db4: f9004fe0	(984)	MOV	R0,fmt+0(FP)
 00102db8: b9404c01	(984)	MOVWU	76(R0),R1
 00102dbc: 121e0021	(984)	ANDW	$4,R1
 00102dc0: 6b1f003f	(984)	CMPW	$0,R1,
 00102dc4: 54000040	(984)	BEQ	,102dcc(BRANCH)
 00102dc8: b9804809	(985)	MOVW	72(R0),R9
 00102dcc: b90033e9	(986)	MOVW	R9,prec-96(SP)
 00102dd0: 7100793f	(986)	CMPW	$30,R9,
 00102dd4: 5400006d	(986)	BLE	,102de0(BRANCH)
 00102dd8: 98012462	(987)	MOVW	$30,R2
 00102ddc: b90033e2	(987)	MOVW	R2,prec-96(SP)
 00102de0: fd0007e7	(988)	FMOVD	F7,8(R31)
 00102de4: 940006c6	(988)	BL	,isNaN+0x1048fc(BRANCH)
 00102de8: fd4057e7	(988)	FMOVD	f+16(FP),F7
 00102dec: f94053e9	(988)	MOV	s2+8(FP),R9
 00102df0: 6b1f001f	(988)	CMPW	$0,R0,
 00102df4: 540000e0	(988)	BEQ	,102e10(BRANCH)
 00102df8: aa0903e0	(989)	MOV	R9,R0
 00102dfc: 91028383	(989)	MOV	$.string<>+0(SB),R3
 00102e00: f9000be3	(989)	MOV	R3,16(R31)
 00102e04: 94000666	(989)	BL	,strcpy+0x10479c(BRANCH)
 00102e08: f84907fe	(990)	MOV	(R31)144!,R30
 00102e0c: d65f03c0	(990)	RET	,0(R30)
 00102e10: fd0007e7	(992)	FMOVD	F7,8(R31)
 00102e14: 98011fc4	(992)	MOVW	$1,R4
 00102e18: b90013e4	(992)	MOVW	R4,16(R31)
 00102e1c: 940006db	(992)	BL	,isInf+0x104988(BRANCH)
 00102e20: fd4057e7	(992)	FMOVD	f+16(FP),F7
 00102e24: f94053e9	(992)	MOV	s2+8(FP),R9
 00102e28: 6b1f001f	(992)	CMPW	$0,R0,
 00102e2c: 540000e0	(992)	BEQ	,102e48(BRANCH)
 00102e30: aa0903e0	(993)	MOV	R9,R0
 00102e34: 91029382	(993)	MOV	$.string<>+4(SB),R2
 00102e38: f9000be2	(993)	MOV	R2,16(R31)
 00102e3c: 94000658	(993)	BL	,strcpy+0x10479c(BRANCH)
 00102e40: f84907fe	(994)	MOV	(R31)144!,R30
 00102e44: d65f03c0	(994)	RET	,0(R30)
 00102e48: fd0007e7	(996)	FMOVD	F7,8(R31)
 00102e4c: 12800003	(996)	MOVW	$-1,R3
 00102e50: b90013e3	(996)	MOVW	R3,16(R31)
 00102e54: 940006cd	(996)	BL	,isInf+0x104988(BRANCH)
 00102e58: f9404fea	(996)	MOV	fmt+0(FP),R10
 00102e5c: fd4057e8	(996)	FMOVD	f+16(FP),F8
 00102e60: 6b1f001f	(996)	CMPW	$0,R0,
 00102e64: 540000e0	(996)	BEQ	,102e80(BRANCH)
 00102e68: f94053e0	(997)	MOV	s2+8(FP),R0
 00102e6c: 9102a781	(997)	MOV	$.string<>+9(SB),R1
 00102e70: f9000be1	(997)	MOV	R1,16(R31)
 00102e74: 9400064a	(997)	BL	,strcpy+0x10479c(BRANCH)
 00102e78: f84907fe	(998)	MOV	(R31)144!,R30
 00102e7c: d65f03c0	(998)	RET	,0(R30)
 00102e80: 2a1f03e9	(1000)	MOVW	$0,R9
 00102e84: b9003be9	(1000)	MOVW	R9,sign-88(SP)
 00102e88: fd400384	(1001)	FMOVD	$0.0+0(SB),F4
 00102e8c: 1e642100	(1001)	FCMPD	F4,F8,
 00102e90: 540000c5	(1001)	BPL	,102ea8(BRANCH)
 00102e94: fd400380	(1002)	FMOVD	$0.0+0(SB),F0
 00102e98: 1e683808	(1002)	FSUBD	F8,F0,F8
 00102e9c: fd0057e8	(1002)	FMOVD	F8,f+16(FP)
 00102ea0: 11000521	(1003)	ADDW	$1,R9,R1
 00102ea4: b9003be1	(1003)	MOVW	R1,sign-88(SP)
 00102ea8: b9003fff	(1005)	MOVW	$0,ucase-84(SP)
 00102eac: b9804144	(1006)	MOVW	64(R10),R4
 00102eb0: b90037e4	(1006)	MOVW	R4,chr-92(SP)
 00102eb4: b98037e4	(1007)	MOVW	chr-92(SP),R4
 00102eb8: 2a0403e4	(1007)	MOVWU	R4,R4
 00102ebc: d3401c84	(1007)	MOVBU	R4,R4
 00102ec0: 91260383	(1007)	MOV	$_ctype+0(SB),R3
 00102ec4: 8b030084	(1007)	ADD	R3,R4
 00102ec8: 39400084	(1007)	MOVBU	0(R4),R4
 00102ecc: 12000084	(1007)	ANDW	$1,R4
 00102ed0: 6b1f009f	(1007)	CMPW	$0,R4,
 00102ed4: 540000e0	(1007)	BEQ	,102ef0(BRANCH)
 00102ed8: 980119a1	(1008)	MOVW	$1,R1
 00102edc: b9003fe1	(1008)	MOVW	R1,ucase-84(SP)
 00102ee0: b98037e0	(1009)	MOVW	chr-92(SP),R0
 00102ee4: 94000278	(1009)	BL	,tolower+0x1038c4(BRANCH)
 00102ee8: fd4057e8	(1009)	FMOVD	f+16(FP),F8
 00102eec: b90037e0	(1009)	MOVW	R0,chr-92(SP)
 00102ef0: b9005fff	(1012)	MOVW	$0,e-52(SP)
 00102ef4: 1e604107	(1013)	FMOVD	F8,F7
 00102ef8: fd400382	(1014)	FMOVD	$0.0+0(SB),F2
 00102efc: 1e622100	(1014)	FCMPD	F2,F8,
 00102f00: 540007e0	(1014)	BEQ	,102ffc(BRANCH)
 00102f04: fd0007e8	(1015)	FMOVD	F8,8(R31)
 00102f08: 910173e2	(1015)	MOV	$e-52(SP),R2
 00102f0c: f9000be2	(1015)	MOV	R2,16(R31)
 00102f10: 94000787	(1015)	BL	,frexp+0x104d2c(BRANCH)
 00102f14: fd4057e7	(1015)	FMOVD	f+16(FP),F7
 00102f18: b9805fe2	(1016)	MOVW	e-52(SP),R2
 00102f1c: 1e620043	(1016)	SCVTFWD	R2,F3
 00102f20: fd404385	(1016)	FMOVD	$509f7b52.3fd34413+0(SB),F5
 00102f24: 1e650864	(1016)	FMULD	F5,F3,F4
 00102f28: 1e780081	(1016)	FCVTZSDW	F4,R1
 00102f2c: b9005fe1	(1016)	MOVW	R1,e-52(SP)
 00102f30: b9805fe3	(1017)	MOVW	e-52(SP),R3
 00102f34: 3102587f	(1017)	CMNW	$150,R3,
 00102f38: 5400008b	(1017)	BLT	,102f48(BRANCH)
 00102f3c: b9805fe5	(1017)	MOVW	e-52(SP),R5
 00102f40: 710258bf	(1017)	CMPW	$150,R5,
 00102f44: 54003b0d	(1017)	BLE	,1036a4(BRANCH)
 00102f48: b9805fe4	(1021)	MOVW	e-52(SP),R4
 00102f4c: 6b1f009f	(1021)	CMPW	$0,R4,
 00102f50: 5400004a	(1021)	BGE	,102f58(BRANCH)
 00102f54: 11000484	(1021)	ADDW	$1,R4
 00102f58: 13017c84	(1021)	ASRW	$1,R4
 00102f5c: b9005be4	(1022)	MOVW	R4,d-56(SP)
 00102f60: 4b0403e0	(1022)	NEGW	R4,R0
 00102f64: 94000626	(1022)	BL	,pow10+0x1047fc(BRANCH)
 00102f68: fd4057e7	(1022)	FMOVD	f+16(FP),F7
 00102f6c: b9805be9	(1022)	MOVW	d-56(SP),R9
 00102f70: 1e6008e0	(1022)	FMULD	F0,F7,F0
 00102f74: fd0033e0	(1022)	FMOVD	F0,h-48(SP)
 00102f78: b9005be9	(1024)	MOVW	R9,d-56(SP)
 00102f7c: b9805fe1	(1024)	MOVW	e-52(SP),R1
 00102f80: 4b010120	(1024)	SUBW	R1,R9,R0
 00102f84: 9400061e	(1024)	BL	,pow10+0x1047fc(BRANCH)
 00102f88: fd4033e7	(1024)	FMOVD	h-48(SP),F7
 00102f8c: b9805be9	(1024)	MOVW	d-56(SP),R9
 00102f90: 1e6008e7	(1024)	FMULD	F0,F7,F7
 00102f94: fd404b82	(1025)	FMOVD	$0.3ff00000+0(SB),F2
 00102f98: 1e6220e0	(1025)	FCMPD	F2,F7,
 00102f9c: 54000165	(1025)	BPL	,102fc8(BRANCH)
 00102fa0: b9805fe4	(1026)	MOVW	e-52(SP),R4
 00102fa4: 51000484	(1026)	SUBW	$1,R4
 00102fa8: b9005fe4	(1026)	MOVW	R4,e-52(SP)
 00102fac: b9805fe5	(1027)	MOVW	e-52(SP),R5
 00102fb0: 4b050120	(1027)	SUBW	R5,R9,R0
 00102fb4: 94000612	(1027)	BL	,pow10+0x1047fc(BRANCH)
 00102fb8: b9805be9	(1027)	MOVW	d-56(SP),R9
 00102fbc: fd4033e7	(1027)	FMOVD	h-48(SP),F7
 00102fc0: 1e6008e7	(1027)	FMULD	F0,F7,F7
 00102fc4: 17fffff4	(1025)	B	,102f94(BRANCH)
 00102fc8: fd406781	(1029)	FMOVD	$0.40240000+0(SB),F1
 00102fcc: 1e6120e0	(1029)	FCMPD	F1,F7,
 00102fd0: 5400016b	(1029)	BLT	,102ffc(BRANCH)
 00102fd4: b9805fe3	(1030)	MOVW	e-52(SP),R3
 00102fd8: 11000463	(1030)	ADDW	$1,R3
 00102fdc: b9005fe3	(1030)	MOVW	R3,e-52(SP)
 00102fe0: b9805fe4	(1031)	MOVW	e-52(SP),R4
 00102fe4: 4b040120	(1031)	SUBW	R4,R9,R0
 00102fe8: 94000605	(1031)	BL	,pow10+0x1047fc(BRANCH)
 00102fec: b9805be9	(1031)	MOVW	d-56(SP),R9
 00102ff0: fd4033e7	(1031)	FMOVD	h-48(SP),F7
 00102ff4: 1e6008e7	(1031)	FMULD	F0,F7,F7
 00102ff8: 17fffff4	(1029)	B	,102fc8(BRANCH)
 00102ffc: 2a1f03e9	(1039)	MOVW	$0,R9
 00103000: 7100453f	(1039)	CMPW	$17,R9,
 00103004: 5400018a	(1039)	BGE	,103034(BRANCH)
 00103008: 1e7800e2	(1040)	FCVTZSDW	F7,R2
 0010300c: 9101d3e5	(1041)	MOV	$s1-28(SP),R5
 00103010: 8b050124	(1041)	ADD	R5,R9,R4
 00103014: 1100c045	(1041)	ADDW	$48,R2,R5
 00103018: 39000085	(1041)	MOVB	R5,0(R4)
 0010301c: 1e620045	(1042)	SCVTFWD	R2,F5
 00103020: 1e6538e4	(1042)	FSUBD	F5,F7,F4
 00103024: fd406782	(1042)	FMOVD	$0.40240000+0(SB),F2
 00103028: 1e620887	(1042)	FMULD	F2,F4,F7
 0010302c: 11000529	(1039)	ADDW	$1,R9,R9
 00103030: 17fffff4	(1039)	B	,103000(BRANCH)
 00103034: 9101d3e6	(1044)	MOV	$s1-28(SP),R6
 00103038: 8b060125	(1044)	ADD	R6,R9,R5
 0010303c: 390000bf	(1044)	MOVB	$0,0(R5)
 00103040: b98033e1	(1049)	MOVW	prec-96(SP),R1
 00103044: 11000429	(1049)	ADDW	$1,R1,R9
 00103048: b98037e4	(1050)	MOVW	chr-92(SP),R4
 0010304c: 7101989f	(1050)	CMPW	$102,R4,
 00103050: 54000061	(1050)	BNE	,10305c(BRANCH)
 00103054: b9805fe1	(1051)	MOVW	e-52(SP),R1
 00103058: 0b010129	(1051)	ADDW	R1,R9,R9
 0010305c: 71003d3f	(1052)	CMPW	$15,R9,
 00103060: 54002ceb	(1052)	BLT	,1035fc(BRANCH)
 00103064: f94053e0	(1053)	MOV	s2+8(FP),R0
 00103068: 9101d3e4	(1053)	MOV	$s1-28(SP),R4
 0010306c: f9000be4	(1053)	MOV	R4,16(R31)
 00103070: 940005cb	(1053)	BL	,strcpy+0x10479c(BRANCH)
 00103074: b9805fe1	(1054)	MOVW	e-52(SP),R1
 00103078: b9005be1	(1054)	MOVW	R1,d-56(SP)
 0010307c: 58010de3	(1055)	MOV	$48,R3
 00103080: 39020fe3	(1055)	MOVB	R3,s1-13(SP)
 00103084: 58010da4	(1056)	MOV	$48,R4
 00103088: 390213e4	(1056)	MOVB	R4,s1-12(SP)
 0010308c: 9101d3e0	(1057)	MOV	$s1-28(SP),R0
 00103090: 91004400	(1057)	ADD	$17,R0,R0
 00103094: 52800145	(1057)	MOVW	$10,R5
 00103098: b90013e5	(1057)	MOVW	R5,16(R31)
 0010309c: 9102bb82	(1057)	MOV	$.string<>+14(SB),R2
 001030a0: f9000fe2	(1057)	MOV	R2,24(R31)
 001030a4: b9805fe4	(1057)	MOVW	e-52(SP),R4
 001030a8: 51004084	(1057)	SUBW	$16,R4
 001030ac: b90023e4	(1057)	MOVW	R4,32(R31)
 001030b0: 94000816	(1057)	BL	,snprint+0x105108(BRANCH)
 001030b4: 9101d3e0	(1058)	MOV	$s1-28(SP),R0
 001030b8: f9000bff	(1058)	MOV	$0,16(R31)
 001030bc: 9400020b	(1058)	BL	,strtod+0x1038e8(BRANCH)
 001030c0: fd4057e8	(1058)	FMOVD	f+16(FP),F8
 001030c4: 1e682000	(1059)	FCMPD	F8,F0,
 001030c8: 54002581	(1059)	BNE	,103578(BRANCH)
 001030cc: 2a1f03e9	(1095)	MOVW	$0,R9
 001030d0: b9005be9	(1095)	MOVW	R9,d-56(SP)
 001030d4: b90057e9	(1096)	MOVW	R9,i-60(SP)
 001030d8: b9803be4	(1097)	MOVW	sign-88(SP),R4
 001030dc: 6b1f009f	(1097)	CMPW	$0,R4,
 001030e0: 540021c0	(1097)	BEQ	,103518(BRANCH)
 001030e4: 11000522	(1098)	ADDW	$1,R9,R2
 001030e8: b9005be2	(1098)	MOVW	R2,d-56(SP)
 001030ec: f94053e4	(1098)	MOV	s2+8(FP),R4
 001030f0: 8b040121	(1098)	ADD	R4,R9,R1
 001030f4: d28005a2	(1098)	MOV	$45,R2
 001030f8: 39000022	(1098)	MOVB	R2,0(R1)
 001030fc: b9004fff	(1111)	MOVW	$0,c1-68(SP)
 00103100: b98033e2	(1112)	MOVW	prec-96(SP),R2
 00103104: 11000449	(1112)	ADDW	$1,R2,R9
 00103108: b90047ff	(1113)	MOVW	$0,c3-76(SP)
 0010310c: b98033e5	(1114)	MOVW	prec-96(SP),R5
 00103110: b90043e5	(1114)	MOVW	R5,c4-80(SP)
 00103114: b98037e5	(1139)	MOVW	chr-92(SP),R5
 00103118: 710198bf	(1139)	CMPW	$102,R5,
 0010311c: 54001c60	(1139)	BEQ	,1034a8(BRANCH)
 00103120: 71019cbf	(1139)	CMPW	$103,R5,
 00103124: 540017e0	(1139)	BEQ	,103420(BRANCH)
 00103128: 9101d3e0	(1117)	MOV	$s1-28(SP),R0
 0010312c: b9004be9	(1117)	MOVW	R9,c2-72(SP)
 00103130: b90013e9	(1117)	MOVW	R9,16(R31)
 00103134: 528000a1	(1117)	MOVW	$5,R1
 00103138: b9001be1	(1117)	MOVW	R1,24(R31)
 0010313c: 97fffee2	(1117)	BL	,xadd+0x102cc4(BRANCH)
 00103140: b98057ef	(1117)	MOVW	i-60(SP),R15
 00103144: b98043ee	(1117)	MOVW	c4-80(SP),R14
 00103148: b9804fed	(1117)	MOVW	c1-68(SP),R13
 0010314c: b98047ec	(1117)	MOVW	c3-76(SP),R12
 00103150: b9804beb	(1117)	MOVW	c2-72(SP),R11
 00103154: f94053ea	(1117)	MOV	s2+8(FP),R10
 00103158: b9805be9	(1117)	MOVW	d-56(SP),R9
 0010315c: 6b1f001f	(1117)	CMPW	$0,R0,
 00103160: 54000080	(1117)	BEQ	,103170(BRANCH)
 00103164: b9805fe3	(1118)	MOVW	e-52(SP),R3
 00103168: 11000463	(1118)	ADDW	$1,R3
 0010316c: b9005fe3	(1118)	MOVW	R3,e-52(SP)
 00103170: 6b1f01bf	(1145)	CMPW	$0,R13,
 00103174: 5400004a	(1145)	BGE	,10317c(BRANCH)
 00103178: 2a1f03ed	(1146)	MOVW	$0,R13
 0010317c: 6b1f017f	(1147)	CMPW	$0,R11,
 00103180: 5400004a	(1147)	BGE	,103188(BRANCH)
 00103184: 2a1f03eb	(1148)	MOVW	$0,R11
 00103188: 7100457f	(1149)	CMPW	$17,R11,
 0010318c: 5400006d	(1149)	BLE	,103198(BRANCH)
 00103190: 5100456c	(1150)	SUBW	$17,R11,R12
 00103194: 5280022b	(1151)	MOVW	$17,R11
 00103198: 6b1f01bf	(1157)	CMPW	$0,R13,
 0010319c: 5400022d	(1157)	BLE	,1031e0(BRANCH)
 001031a0: 0b0c01a5	(1158)	ADDW	R12,R13,R5
 001031a4: 0b0b00a5	(1158)	ADDW	R11,R5
 001031a8: 6b0e00bf	(1158)	CMPW	R14,R5,
 001031ac: 540000c1	(1158)	BNE	,1031c4(BRANCH)
 001031b0: 93407d25	(1159)	MOVW	R9,R5
 001031b4: 11000529	(1159)	ADDW	$1,R9,R9
 001031b8: 8b0a00a5	(1159)	ADD	R10,R5,R5
 001031bc: d28005c6	(1159)	MOV	$46,R6
 001031c0: 390000a6	(1159)	MOVB	R6,0(R5)
 001031c4: 93407d21	(1160)	MOVW	R9,R1
 001031c8: 11000529	(1160)	ADDW	$1,R9,R9
 001031cc: 8b0a0021	(1160)	ADD	R10,R1,R1
 001031d0: 58010342	(1160)	MOV	$48,R2
 001031d4: 39000022	(1160)	MOVB	R2,0(R1)
 001031d8: 510005ad	(1161)	SUBW	$1,R13,R13
 001031dc: 17ffffef	(1157)	B	,103198(BRANCH)
 001031e0: 6b1f017f	(1163)	CMPW	$0,R11,
 001031e4: 5400028d	(1163)	BLE	,103234(BRANCH)
 001031e8: 0b0c0162	(1164)	ADDW	R12,R11,R2
 001031ec: 6b0e005f	(1164)	CMPW	R14,R2,
 001031f0: 540000c1	(1164)	BNE	,103208(BRANCH)
 001031f4: 93407d24	(1165)	MOVW	R9,R4
 001031f8: 11000529	(1165)	ADDW	$1,R9,R9
 001031fc: 8b0a0084	(1165)	ADD	R10,R4,R4
 00103200: d28005c5	(1165)	MOV	$46,R5
 00103204: 39000085	(1165)	MOVB	R5,0(R4)
 00103208: 93407de5	(1166)	MOVW	R15,R5
 0010320c: 110005ef	(1166)	ADDW	$1,R15,R15
 00103210: 9101d3e4	(1166)	MOV	$s1-28(SP),R4
 00103214: 8b0400a5	(1166)	ADD	R4,R5,R5
 00103218: 398000a5	(1166)	MOVB	0(R5),R5
 0010321c: 93407d21	(1166)	MOVW	R9,R1
 00103220: 11000529	(1166)	ADDW	$1,R9,R9
 00103224: 8b0a0021	(1166)	ADD	R10,R1,R1
 00103228: 39000025	(1166)	MOVB	R5,0(R1)
 0010322c: 5100056b	(1167)	SUBW	$1,R11,R11
 00103230: 17ffffec	(1163)	B	,1031e0(BRANCH)
 00103234: 6b1f019f	(1169)	CMPW	$0,R12,
 00103238: 540001ed	(1169)	BLE	,103274(BRANCH)
 0010323c: 6b0e019f	(1170)	CMPW	R14,R12,
 00103240: 540000c1	(1170)	BNE	,103258(BRANCH)
 00103244: 93407d21	(1171)	MOVW	R9,R1
 00103248: 11000529	(1171)	ADDW	$1,R9,R9
 0010324c: 8b0a0021	(1171)	ADD	R10,R1,R1
 00103250: d28005c2	(1171)	MOV	$46,R2
 00103254: 39000022	(1171)	MOVB	R2,0(R1)
 00103258: 93407d22	(1172)	MOVW	R9,R2
 0010325c: 11000529	(1172)	ADDW	$1,R9,R9
 00103260: 8b0a0042	(1172)	ADD	R10,R2,R2
 00103264: 5800fea3	(1172)	MOV	$48,R3
 00103268: 39000043	(1172)	MOVB	R3,0(R2)
 0010326c: 5100058c	(1173)	SUBW	$1,R12,R12
 00103270: 17fffff1	(1169)	B	,103234(BRANCH)
 00103274: f9404fe1	(1179)	MOV	fmt+0(FP),R1
 00103278: b9404c21	(1179)	MOVWU	76(R1),R1
 0010327c: 121d0021	(1179)	ANDW	$8,R1
 00103280: 6b1f003f	(1179)	CMPW	$0,R1,
 00103284: 54000940	(1179)	BEQ	,1033ac(BRANCH)
 00103288: 6b1f01df	(1180)	CMPW	$0,R14,
 0010328c: 540000c1	(1180)	BNE	,1032a4(BRANCH)
 00103290: 93407d22	(1181)	MOVW	R9,R2
 00103294: 11000529	(1181)	ADDW	$1,R9,R9
 00103298: 8b0a0042	(1181)	ADD	R10,R2,R2
 0010329c: d28005c3	(1181)	MOV	$46,R3
 001032a0: 39000043	(1181)	MOVB	R3,0(R2)
 001032a4: b98037e3	(1195)	MOVW	chr-92(SP),R3
 001032a8: 7101947f	(1195)	CMPW	$101,R3,
 001032ac: 54000100	(1195)	BEQ	,1032cc(BRANCH)
 001032b0: b98037e5	(1195)	MOVW	chr-92(SP),R5
 001032b4: 71019cbf	(1195)	CMPW	$103,R5,
 001032b8: 540000a0	(1195)	BEQ	,1032cc(BRANCH)
 001032bc: 8b0a0124	(1213)	ADD	R10,R9,R4
 001032c0: 3900009f	(1213)	MOVB	$0,0(R4)
 001032c4: f84907fe	(1213)	MOV	(R31)144!,R30
 001032c8: d65f03c0	(1213)	RET	,0(R30)
 001032cc: b9803fe2	(1196)	MOVW	ucase-84(SP),R2
 001032d0: 6b1f005f	(1196)	CMPW	$0,R2,
 001032d4: 54000600	(1196)	BEQ	,103394(BRANCH)
 001032d8: 93407d24	(1197)	MOVW	R9,R4
 001032dc: 11000529	(1197)	ADDW	$1,R9,R9
 001032e0: 8b0a0084	(1197)	ADD	R10,R4,R4
 001032e4: d28008a5	(1197)	MOV	$69,R5
 001032e8: 39000085	(1197)	MOVB	R5,0(R4)
 001032ec: b9805feb	(1200)	MOVW	e-52(SP),R11
 001032f0: 6b1f017f	(1201)	CMPW	$0,R11,
 001032f4: 5400044a	(1201)	BGE	,10337c(BRANCH)
 001032f8: 93407d25	(1202)	MOVW	R9,R5
 001032fc: 11000529	(1202)	ADDW	$1,R9,R9
 00103300: 8b0a00a5	(1202)	ADD	R10,R5,R5
 00103304: d28005a6	(1202)	MOV	$45,R6
 00103308: 390000a6	(1202)	MOVB	R6,0(R5)
 0010330c: 4b0b03eb	(1203)	NEGW	R11,R11
 00103310: 7101917f	(1206)	CMPW	$100,R11,
 00103314: 5400014b	(1206)	BLT	,10333c(BRANCH)
 00103318: 93407d23	(1207)	MOVW	R9,R3
 0010331c: 11000529	(1207)	ADDW	$1,R9,R9
 00103320: 8b0a0063	(1207)	ADD	R10,R3,R3
 00103324: 52800c82	(1207)	MOVW	$100,R2
 00103328: 1ac20d64	(1207)	SDIVW	R2,R11,R4
 0010332c: 1100c084	(1207)	ADDW	$48,R4
 00103330: 39000064	(1207)	MOVB	R4,0(R3)
 00103334: 1ac20d71 1b02ae2b(1208)	REMW	R2,R11,R11
 0010333c: 11000522	(1210)	ADDW	$1,R9,R2
 00103340: 8b0a0125	(1210)	ADD	R10,R9,R5
 00103344: 52800144	(1210)	MOVW	$10,R4
 00103348: 1ac40d66	(1210)	SDIVW	R4,R11,R6
 0010334c: 1100c0c6	(1210)	ADDW	$48,R6
 00103350: 390000a6	(1210)	MOVB	R6,0(R5)
 00103354: 11000449	(1211)	ADDW	$1,R2,R9
 00103358: 8b0a0042	(1211)	ADD	R10,R2,R2
 0010335c: 1ac40d71 1b04ae23(1211)	REMW	R4,R11,R3
 00103364: 1100c063	(1211)	ADDW	$48,R3
 00103368: 39000043	(1211)	MOVB	R3,0(R2)
 0010336c: 8b0a0124	(1213)	ADD	R10,R9,R4
 00103370: 3900009f	(1213)	MOVB	$0,0(R4)
 00103374: f84907fe	(1213)	MOV	(R31)144!,R30
 00103378: d65f03c0	(1213)	RET	,0(R30)
 0010337c: 93407d25	(1205)	MOVW	R9,R5
 00103380: 11000529	(1205)	ADDW	$1,R9,R9
 00103384: 8b0a00a5	(1205)	ADD	R10,R5,R5
 00103388: d2800566	(1205)	MOV	$43,R6
 0010338c: 390000a6	(1205)	MOVB	R6,0(R5)
 00103390: 17ffffe0	(1206)	B	,103310(BRANCH)
 00103394: 93407d25	(1199)	MOVW	R9,R5
 00103398: 11000529	(1199)	ADDW	$1,R9,R9
 0010339c: 8b0a00a5	(1199)	ADD	R10,R5,R5
 001033a0: d2800ca6	(1199)	MOV	$101,R6
 001033a4: 390000a6	(1199)	MOVB	R6,0(R5)
 001033a8: 17ffffd1	(1200)	B	,1032ec(BRANCH)
 001033ac: b98037e3	(1183)	MOVW	chr-92(SP),R3
 001033b0: 71019c7f	(1183)	CMPW	$103,R3,
 001033b4: 54000080	(1183)	BEQ	,1033c4(BRANCH)
 001033b8: b98037e5	(1183)	MOVW	chr-92(SP),R5
 001033bc: 7101a0bf	(1183)	CMPW	$104,R5,
 001033c0: 54fff721	(1183)	BNE	,1032a4(BRANCH)
 001033c4: 5100052b	(1184)	SUBW	$1,R9,R11
 001033c8: 6b1f017f	(1184)	CMPW	$0,R11,
 001033cc: 540000ab	(1184)	BLT	,1033e0(BRANCH)
 001033d0: 8b0a0165	(1185)	ADD	R10,R11,R5
 001033d4: 398000a5	(1185)	MOVB	0(R5),R5
 001033d8: 7100c0bf	(1185)	CMPW	$48,R5,
 001033dc: 540001e0	(1185)	BEQ	,103418(BRANCH)
 001033e0: 93407d6c	(1187)	MOVW	R11,R12
 001033e4: 6b1f019f	(1187)	CMPW	$0,R12,
 001033e8: 54fff5eb	(1187)	BLT	,1032a4(BRANCH)
 001033ec: 8b0a0183	(1188)	ADD	R10,R12,R3
 001033f0: 39800063	(1188)	MOVB	0(R3),R3
 001033f4: 7100b87f	(1188)	CMPW	$46,R3,
 001033f8: 540000c1	(1188)	BNE	,103410(BRANCH)
 001033fc: 93407d69	(1189)	MOVW	R11,R9
 00103400: 6b0b019f	(1190)	CMPW	R11,R12,
 00103404: 54fff500	(1190)	BEQ	,1032a4(BRANCH)
 00103408: 11000529	(1191)	ADDW	$1,R9,R9
 0010340c: 17ffffa6	(1195)	B	,1032a4(BRANCH)
 00103410: 5100058c	(1187)	SUBW	$1,R12,R12
 00103414: 17fffff4	(1187)	B	,1033e4(BRANCH)
 00103418: 5100056b	(1184)	SUBW	$1,R11,R11
 0010341c: 17ffffeb	(1184)	B	,1033c8(BRANCH)
 00103420: 9101d3e0	(1124)	MOV	$s1-28(SP),R0
 00103424: b9004be9	(1124)	MOVW	R9,c2-72(SP)
 00103428: b90013e9	(1124)	MOVW	R9,16(R31)
 0010342c: 528000a5	(1124)	MOVW	$5,R5
 00103430: b9001be5	(1124)	MOVW	R5,24(R31)
 00103434: 97fffe24	(1124)	BL	,xadd+0x102cc4(BRANCH)
 00103438: b98057ef	(1124)	MOVW	i-60(SP),R15
 0010343c: b98043ee	(1124)	MOVW	c4-80(SP),R14
 00103440: b9804fed	(1124)	MOVW	c1-68(SP),R13
 00103444: b98047ec	(1124)	MOVW	c3-76(SP),R12
 00103448: b9804beb	(1124)	MOVW	c2-72(SP),R11
 0010344c: f94053ea	(1124)	MOV	s2+8(FP),R10
 00103450: b9805be9	(1124)	MOVW	d-56(SP),R9
 00103454: 6b1f001f	(1124)	CMPW	$0,R0,
 00103458: 54000080	(1124)	BEQ	,103468(BRANCH)
 0010345c: b9805fe2	(1125)	MOVW	e-52(SP),R2
 00103460: 11000442	(1125)	ADDW	$1,R2
 00103464: b9005fe2	(1125)	MOVW	R2,e-52(SP)
 00103468: b9805fe5	(1126)	MOVW	e-52(SP),R5
 0010346c: 310014bf	(1126)	CMNW	$5,R5,
 00103470: 54ffe80b	(1126)	BLT	,103170(BRANCH)
 00103474: b9805fe2	(1126)	MOVW	e-52(SP),R2
 00103478: b98033e4	(1126)	MOVW	prec-96(SP),R4
 0010347c: 6b04005f	(1126)	CMPW	R4,R2,
 00103480: 54ffe78c	(1126)	BGT	,103170(BRANCH)
 00103484: 12800001	(1127)	MOVW	$-1,R1
 00103488: b9805fe3	(1127)	MOVW	e-52(SP),R3
 0010348c: 4b03002d	(1127)	SUBW	R3,R1,R13
 00103490: b98033e1	(1128)	MOVW	prec-96(SP),R1
 00103494: b9805fe4	(1128)	MOVW	e-52(SP),R4
 00103498: 4b04002e	(1128)	SUBW	R4,R1,R14
 0010349c: 52800d02	(1129)	MOVW	$104,R2
 001034a0: b90037e2	(1129)	MOVW	R2,chr-92(SP)
 001034a4: 17ffff33	(1145)	B	,103170(BRANCH)
 001034a8: 9101d3e0	(1133)	MOV	$s1-28(SP),R0
 001034ac: b9004be9	(1133)	MOVW	R9,c2-72(SP)
 001034b0: b9805fe2	(1133)	MOVW	e-52(SP),R2
 001034b4: 0b020124	(1133)	ADDW	R2,R9,R4
 001034b8: b90013e4	(1133)	MOVW	R4,16(R31)
 001034bc: 528000a5	(1133)	MOVW	$5,R5
 001034c0: b9001be5	(1133)	MOVW	R5,24(R31)
 001034c4: 97fffe00	(1133)	BL	,xadd+0x102cc4(BRANCH)
 001034c8: b9804beb	(1133)	MOVW	c2-72(SP),R11
 001034cc: b98057ef	(1133)	MOVW	i-60(SP),R15
 001034d0: b98043ee	(1133)	MOVW	c4-80(SP),R14
 001034d4: b98047ec	(1133)	MOVW	c3-76(SP),R12
 001034d8: f94053ea	(1133)	MOV	s2+8(FP),R10
 001034dc: b9805be9	(1133)	MOVW	d-56(SP),R9
 001034e0: 6b1f001f	(1133)	CMPW	$0,R0,
 001034e4: 54000080	(1133)	BEQ	,1034f4(BRANCH)
 001034e8: b9805fe2	(1134)	MOVW	e-52(SP),R2
 001034ec: 11000442	(1134)	ADDW	$1,R2
 001034f0: b9005fe2	(1134)	MOVW	R2,e-52(SP)
 001034f4: b9805fe5	(1135)	MOVW	e-52(SP),R5
 001034f8: 4b0503ed	(1135)	NEGW	R5,R13
 001034fc: b98033e1	(1136)	MOVW	prec-96(SP),R1
 00103500: 6b0101bf	(1136)	CMPW	R1,R13,
 00103504: 5400004d	(1136)	BLE	,10350c(BRANCH)
 00103508: 93407d6d	(1137)	MOVW	R11,R13
 0010350c: b9805fe5	(1138)	MOVW	e-52(SP),R5
 00103510: 0b05016b	(1138)	ADDW	R5,R11,R11
 00103514: 17ffff17	(1145)	B	,103170(BRANCH)
 00103518: f9404fe2	(1099)	MOV	fmt+0(FP),R2
 0010351c: b9404c42	(1099)	MOVWU	76(R2),R2
 00103520: 121b0042	(1099)	ANDW	$32,R2
 00103524: 6b1f005f	(1099)	CMPW	$0,R2,
 00103528: 54000100	(1099)	BEQ	,103548(BRANCH)
 0010352c: 11000522	(1100)	ADDW	$1,R9,R2
 00103530: b9005be2	(1100)	MOVW	R2,d-56(SP)
 00103534: f94053e4	(1100)	MOV	s2+8(FP),R4
 00103538: 8b040121	(1100)	ADD	R4,R9,R1
 0010353c: d2800562	(1100)	MOV	$43,R2
 00103540: 39000022	(1100)	MOVB	R2,0(R1)
 00103544: 17fffeee	(1111)	B	,1030fc(BRANCH)
 00103548: f9404fe2	(1101)	MOV	fmt+0(FP),R2
 0010354c: b9404c42	(1101)	MOVWU	76(R2),R2
 00103550: 121c0042	(1101)	ANDW	$16,R2
 00103554: 6b1f005f	(1101)	CMPW	$0,R2,
 00103558: 54ffdd20	(1101)	BEQ	,1030fc(BRANCH)
 0010355c: 11000522	(1102)	ADDW	$1,R9,R2
 00103560: b9005be2	(1102)	MOVW	R2,d-56(SP)
 00103564: f94053e4	(1102)	MOV	s2+8(FP),R4
 00103568: 8b040121	(1102)	ADD	R4,R9,R1
 0010356c: 1800e522	(1102)	MOV	$32,R2
 00103570: 39000022	(1102)	MOVB	R2,0(R1)
 00103574: 17fffee2	(1111)	B	,1030fc(BRANCH)
 00103578: 9101d3e0	(1061)	MOV	$s1-28(SP),R0
 0010357c: 9800e763	(1061)	MOVW	$14,R3
 00103580: b90013e3	(1061)	MOVW	R3,16(R31)
 00103584: 9800e445	(1061)	MOVW	$1,R5
 00103588: b9001be5	(1061)	MOVW	R5,24(R31)
 0010358c: 97fffdce	(1061)	BL	,xadd+0x102cc4(BRANCH)
 00103590: 6b1f001f	(1061)	CMPW	$0,R0,
 00103594: 540001c0	(1061)	BEQ	,1035cc(BRANCH)
 00103598: b9805fe2	(1062)	MOVW	e-52(SP),R2
 0010359c: 11000442	(1062)	ADDW	$1,R2
 001035a0: b9005fe2	(1062)	MOVW	R2,e-52(SP)
 001035a4: 9101d3e0	(1063)	MOV	$s1-28(SP),R0
 001035a8: 91004400	(1063)	ADD	$17,R0,R0
 001035ac: 52800145	(1063)	MOVW	$10,R5
 001035b0: b90013e5	(1063)	MOVW	R5,16(R31)
 001035b4: 9102cb82	(1063)	MOV	$.string<>+18(SB),R2
 001035b8: f9000fe2	(1063)	MOV	R2,24(R31)
 001035bc: b9805fe4	(1063)	MOVW	e-52(SP),R4
 001035c0: 51004084	(1063)	SUBW	$16,R4
 001035c4: b90023e4	(1063)	MOVW	R4,32(R31)
 001035c8: 940006d0	(1063)	BL	,snprint+0x105108(BRANCH)
 001035cc: 9101d3e0	(1065)	MOV	$s1-28(SP),R0
 001035d0: f9000bff	(1065)	MOV	$0,16(R31)
 001035d4: 940000c5	(1065)	BL	,strtod+0x1038e8(BRANCH)
 001035d8: fd4057e8	(1065)	FMOVD	f+16(FP),F8
 001035dc: 1e682000	(1066)	FCMPD	F8,F0,
 001035e0: 54ffd760	(1066)	BEQ	,1030cc(BRANCH)
 001035e4: 9101d3e0	(1068)	MOV	$s1-28(SP),R0
 001035e8: f94053e2	(1068)	MOV	s2+8(FP),R2
 001035ec: f9000be2	(1068)	MOV	R2,16(R31)
 001035f0: 9400046b	(1068)	BL	,strcpy+0x10479c(BRANCH)
 001035f4: b9805be9	(1068)	MOVW	d-56(SP),R9
 001035f8: b9005fe9	(1069)	MOVW	R9,e-52(SP)
 001035fc: 9101d3e0	(1076)	MOV	$s1-28(SP),R0
 00103600: 91004400	(1076)	ADD	$17,R0,R0
 00103604: 52800142	(1076)	MOVW	$10,R2
 00103608: b90013e2	(1076)	MOVW	R2,16(R31)
 0010360c: 9102db84	(1076)	MOV	$.string<>+22(SB),R4
 00103610: f9000fe4	(1076)	MOV	R4,24(R31)
 00103614: b9805fe1	(1076)	MOVW	e-52(SP),R1
 00103618: 51004021	(1076)	SUBW	$16,R1
 0010361c: b90023e1	(1076)	MOVW	R1,32(R31)
 00103620: 940006ba	(1076)	BL	,snprint+0x105108(BRANCH)
 00103624: 9101d3e0	(1077)	MOV	$s1-28(SP),R0
 00103628: f9000bff	(1077)	MOV	$0,16(R31)
 0010362c: 940000af	(1077)	BL	,strtod+0x1038e8(BRANCH)
 00103630: fd4057e8	(1077)	FMOVD	f+16(FP),F8
 00103634: 1e602100	(1078)	FCMPD	F0,F8,
 00103638: 540001ad	(1078)	BLE	,10366c(BRANCH)
 0010363c: 9101d3e0	(1079)	MOV	$s1-28(SP),R0
 00103640: 9800de45	(1079)	MOVW	$16,R5
 00103644: b90013e5	(1079)	MOVW	R5,16(R31)
 00103648: 9800de22	(1079)	MOVW	$1,R2
 0010364c: b9001be2	(1079)	MOVW	R2,24(R31)
 00103650: 97fffd9d	(1079)	BL	,xadd+0x102cc4(BRANCH)
 00103654: 6b1f001f	(1079)	CMPW	$0,R0,
 00103658: 54fffd20	(1079)	BEQ	,1035fc(BRANCH)
 0010365c: b9805fe4	(1080)	MOVW	e-52(SP),R4
 00103660: 51000484	(1080)	SUBW	$1,R4
 00103664: b9005fe4	(1080)	MOVW	R4,e-52(SP)
 00103668: 17ffffe5	(1076)	B	,1035fc(BRANCH)
 0010366c: 1e602100	(1083)	FCMPD	F0,F8,
 00103670: 54ffd2e5	(1083)	BPL	,1030cc(BRANCH)
 00103674: 9101d3e0	(1084)	MOV	$s1-28(SP),R0
 00103678: 9800dc82	(1084)	MOVW	$16,R2
 0010367c: b90013e2	(1084)	MOVW	R2,16(R31)
 00103680: 9800dc64	(1084)	MOVW	$1,R4
 00103684: b9001be4	(1084)	MOVW	R4,24(R31)
 00103688: 97fffdaf	(1084)	BL	,xsub+0x102d44(BRANCH)
 0010368c: 6b1f001f	(1084)	CMPW	$0,R0,
 00103690: 54fffb60	(1084)	BEQ	,1035fc(BRANCH)
 00103694: b9805fe1	(1085)	MOVW	e-52(SP),R1
 00103698: 11000421	(1085)	ADDW	$1,R1
 0010369c: b9005fe1	(1085)	MOVW	R1,e-52(SP)
 001036a0: 17ffffd7	(1076)	B	,1035fc(BRANCH)
 001036a4: 2a1f03e9	(1018)	MOVW	$0,R9
 001036a8: fd0033e7	(1019)	FMOVD	F7,h-48(SP)
 001036ac: 17fffe33	(1024)	B	,102f78(BRANCH)

 001036b0:		(1217)	TEXT	_floatfmt+0(SB),R0,$392
 001036b0: d10283ff	(1217)	SUB	$160,R31
 001036b4: f8110ffe	(1217)	MOV	R30,-240(R31)!
 001036b8: fd40d3e7	(1217)	FMOVD	f+8(FP),F7
 001036bc: f900cfe0	(1226)	MOV	R0,fmt+0(FP)
 001036c0: 9100e3e3	(1226)	MOV	$s-344(SP),R3
 001036c4: f9000be3	(1226)	MOV	R3,16(R31)
 001036c8: fd000fe7	(1226)	FMOVD	F7,24(R31)
 001036cc: 97fffdb7	(1226)	BL	,xdtoa+0x102da8(BRANCH)
 001036d0: f940cfe9	(1226)	MOV	fmt+0(FP),R9
 001036d4: b9404d25	(1227)	MOVWU	76(R9),R5
 001036d8: 120004a5	(1227)	ANDW	$3,R5
 001036dc: b9004d25	(1227)	MOVW	R5,76(R9)
 001036e0: 9100e3e0	(1228)	MOV	$s-344(SP),R0
 001036e4: 97fffb01	(1228)	BL	,strlen+0x1022e8(BRANCH)
 001036e8: b90037e0	(1228)	MOVW	R0,.safe-348(SP)
 001036ec: 9100e3e0	(1228)	MOV	$s-344(SP),R0
 001036f0: 97fffafe	(1228)	BL	,strlen+0x1022e8(BRANCH)
 001036f4: f940cfe9	(1228)	MOV	fmt+0(FP),R9
 001036f8: b90033e0	(1228)	MOVW	R0,.safe-352(SP)
 001036fc: aa0903e0	(1228)	MOV	R9,R0
 00103700: 9100e3e1	(1228)	MOV	$s-344(SP),R1
 00103704: f9000be1	(1228)	MOV	R1,16(R31)
 00103708: b98037e3	(1228)	MOVW	.safe-348(SP),R3
 0010370c: b9001be3	(1228)	MOVW	R3,24(R31)
 00103710: b98033e1	(1228)	MOVW	.safe-352(SP),R1
 00103714: b90023e1	(1228)	MOVW	R1,32(R31)
 00103718: 97fff621	(1228)	BL	,_fmtcpy+0x100f9c(BRANCH)
 0010371c: 2a1f03e0	(1229)	MOVW	$0,R0
 00103720: f84f07fe	(1229)	MOV	(R31)240!,R30
 00103724: 910283ff	(0)	ADD	$160,R31
 00103728: d65f03c0	(0)	RET	,0(R30)

 0010372c:		(1233)	TEXT	_efgfmt+0(SB),R0,$24
 0010372c: f81e0ffe	(1233)	MOV	R30,-32(R31)!
 00103730: f9401c03	(1237)	MOV	56(R0),R3
 00103734: 91002063	(1237)	ADD	$8,R3
 00103738: f9001c03	(1237)	MOV	R3,56(R0)
 0010373c: f9401c01	(1237)	MOV	56(R0),R1
 00103740: fc5f8024	(1237)	FMOVD	-8(R1),F4
 00103744: fd000be4	(1238)	FMOVD	F4,16(R31)
 00103748: 97ffffda	(1238)	BL	,_floatfmt+0x1036b0(BRANCH)
 0010374c: f84207fe	(1238)	MOV	(R31)32!,R30
 00103750: d65f03c0	(1238)	RET	,0(R30)

 00103754:		(898)	TEXT	errfmt+0(SB),R0,$168
 00103754: f8150ffe	(898)	MOV	R30,-176(R31)!
 00103758: f9005fe0	(898)	MOV	R0,f+0(FP)
 0010375c: 9100c3e0	(902)	MOV	$buf-128(SP),R0
 00103760: 1800d862	(902)	MOVWU	$128,R2
 00103764: b90013e2	(902)	MOVWU	R2,16(R31)
 00103768: 94000018	(902)	BL	,rerrstr+0x1037c8(BRANCH)
 0010376c: 9100c3e0	(903)	MOV	$buf-128(SP),R0
 00103770: 97fffac4	(903)	BL	,utflen+0x102280(BRANCH)
 00103774: b9002fe0	(903)	MOVW	R0,.safe-132(SP)
 00103778: 9100c3e0	(903)	MOV	$buf-128(SP),R0
 0010377c: 97fffadb	(903)	BL	,strlen+0x1022e8(BRANCH)
 00103780: f9405fe9	(903)	MOV	f+0(FP),R9
 00103784: b9002be0	(903)	MOVW	R0,.safe-136(SP)
 00103788: aa0903e0	(903)	MOV	R9,R0
 0010378c: 9100c3e2	(903)	MOV	$buf-128(SP),R2
 00103790: f9000be2	(903)	MOV	R2,16(R31)
 00103794: b9802fe4	(903)	MOVW	.safe-132(SP),R4
 00103798: b9001be4	(903)	MOVW	R4,24(R31)
 0010379c: b9802be2	(903)	MOVW	.safe-136(SP),R2
 001037a0: b90023e2	(903)	MOVW	R2,32(R31)
 001037a4: 97fff5fe	(903)	BL	,_fmtcpy+0x100f9c(BRANCH)
 001037a8: f84b07fe	(903)	MOV	(R31)176!,R30
 001037ac: d65f03c0	(903)	RET	,0(R30)

 001037b0:		(1)	TEXT	pwrite+0(SB),R1,$-8
 001037b0: f90007e0	(3)	MOV	R0,a0+0(FP)
 001037b4: d4000661	(4)	SVC	,$51
 001037b8: d65f03c0	(5)	RET	,0(R30)

 001037bc:		(1)	TEXT	pread+0(SB),R1,$-8
 001037bc: f90007e0	(3)	MOV	R0,a0+0(FP)
 001037c0: d4000641	(4)	SVC	,$50
 001037c4: d65f03c0	(5)	RET	,0(R30)

 001037c8:		(812)	TEXT	rerrstr+0(SB),R0,$152
 001037c8: f8160ffe	(812)	MOV	R30,-160(R31)!
 001037cc: f90057e0	(812)	MOV	R0,buf+0(FP)
 001037d0: 390083ff	(816)	MOVB	$0,tmp-128(SP)
 001037d4: 910083e0	(817)	MOV	$tmp-128(SP),R0
 001037d8: 1800d4a2	(817)	MOVWU	$128,R2
 001037dc: b90013e2	(817)	MOVWU	R2,16(R31)
 001037e0: 94000661	(817)	BL	,errstr+0x105164(BRANCH)
 001037e4: b940b3ea	(817)	MOVWU	nbuf+8(FP),R10
 001037e8: f94057e0	(817)	MOV	buf+0(FP),R0
 001037ec: 2a0a03e5	(818)	MOVWU	R10,R5
 001037f0: 8b0000a5	(818)	ADD	R0,R5
 001037f4: f9000be5	(818)	MOV	R5,16(R31)
 001037f8: 910083e3	(818)	MOV	$tmp-128(SP),R3
 001037fc: f9000fe3	(818)	MOV	R3,24(R31)
 00103800: 94000007	(818)	BL	,utfecpy+0x10381c(BRANCH)
 00103804: 910083e0	(819)	MOV	$tmp-128(SP),R0
 00103808: 1800d325	(819)	MOVWU	$128,R5
 0010380c: b90013e5	(819)	MOVWU	R5,16(R31)
 00103810: 94000655	(819)	BL	,errstr+0x105164(BRANCH)
 00103814: f84a07fe	(819)	MOV	(R31)160!,R30
 00103818: d65f03c0	(819)	RET	,0(R30)

 0010381c:		(812)	TEXT	utfecpy+0(SB),R0,$40
 0010381c: f81d0ffe	(812)	MOV	R30,-48(R31)!
 00103820: f94027eb	(812)	MOV	from+16(FP),R11
 00103824: f94023ea	(812)	MOV	e+8(FP),R10
 00103828: eb0a001f	(816)	CMP	R10,R0,
 0010382c: 54000063	(816)	BLO	,103838(BRANCH)
 00103830: f84307fe	(817)	MOV	(R31)48!,R30
 00103834: d65f03c0	(817)	RET	,0(R30)
 00103838: f9000beb	(818)	MOV	R11,16(R31)
 0010383c: b9001bff	(818)	MOVW	$0,24(R31)
 00103840: f9001fe0	(818)	MOV	R0,to+0(FP)
 00103844: cb000141	(818)	SUB	R0,R10,R1
 00103848: b90023e1	(818)	MOVW	R1,32(R31)
 0010384c: 9400051c	(818)	BL	,memccpy+0x104cbc(BRANCH)
 00103850: f94023eb	(818)	MOV	e+8(FP),R11
 00103854: f9401fea	(818)	MOV	to+0(FP),R10
 00103858: eb1f001f	(819)	CMP	$0,R0,
 0010385c: 540001a1	(819)	BNE	,103890(BRANCH)
 00103860: aa0b03e9	(820)	MOV	R11,R9
 00103864: eb0a013f	(821)	CMP	R10,R9,
 00103868: 540000c9	(821)	BLS	,103880(BRANCH)
 0010386c: d1000529	(821)	SUB	$1,R9,R9
 00103870: 39800123	(821)	MOVB	0(R9),R3
 00103874: 121a0463	(821)	ANDW	$192,R3
 00103878: 7102007f	(821)	CMPW	$128,R3,
 0010387c: 54ffff40	(821)	BEQ	,103864(BRANCH)
 00103880: 3900013f	(823)	MOVB	$0,0(R9)
 00103884: aa0903e0	(827)	MOV	R9,R0
 00103888: f84307fe	(827)	MOV	(R31)48!,R30
 0010388c: d65f03c0	(827)	RET	,0(R30)
 00103890: d1000409	(825)	SUB	$1,R0,R9
 00103894: aa0903e0	(827)	MOV	R9,R0
 00103898: f84307fe	(827)	MOV	(R31)48!,R30
 0010389c: d65f03c0	(827)	RET	,0(R30)

 001038a0:		(33)	TEXT	toupper+0(SB),R0,$-8
 001038a0: 93407c09	(33)	MOVW	R0,R9
 001038a4: 7101841f	(36)	CMPW	$97,R0,
 001038a8: 540000ab	(36)	BLT	,1038bc(BRANCH)
 001038ac: 7101e93f	(36)	CMPW	$122,R9,
 001038b0: 5400006c	(36)	BGT	,1038bc(BRANCH)
 001038b4: 51008120	(38)	SUBW	$32,R9,R0
 001038b8: d65f03c0	(38)	RET	,0(R30)
 001038bc: 93407d20	(37)	MOVW	R9,R0
 001038c0: d65f03c0	(37)	RET	,0(R30)

 001038c4:		(42)	TEXT	tolower+0(SB),R0,$-8
 001038c4: 93407c09	(42)	MOVW	R0,R9
 001038c8: 7101041f	(45)	CMPW	$65,R0,
 001038cc: 540000ab	(45)	BLT	,1038e0(BRANCH)
 001038d0: 7101693f	(45)	CMPW	$90,R9,
 001038d4: 5400006c	(45)	BGT	,1038e0(BRANCH)
 001038d8: 11008120	(47)	ADDW	$32,R9,R0
 001038dc: d65f03c0	(47)	RET	,0(R30)
 001038e0: 93407d20	(46)	MOVW	R9,R0
 001038e4: d65f03c0	(46)	RET	,0(R30)

 001038e8:		(895)	TEXT	strtod+0(SB),R0,$1624
 001038e8: d115c3ff	(895)	SUB	$1392,R31
 001038ec: f8110ffe	(895)	MOV	R30,-240(R31)!
 001038f0: f9433bee	(895)	MOV	aas+8(FP),R14
 001038f4: aa0003ef	(895)	MOV	R0,R15
 001038f8: 2a1f03ed	(902)	MOVW	$0,R13
 001038fc: b90643ed	(902)	MOVW	R13,flag-32(SP)
 00103900: b9065fed	(903)	MOVW	R13,na-4(SP)
 00103904: b90653ed	(904)	MOVW	R13,dp-16(SP)
 00103908: 93407da9	(905)	MOVW	R13,R9
 0010390c: 93407dac	(907)	MOVW	R13,R12
 00103910: f90337e0	(908)	MOV	R0,as+0(FP)
 00103914: aa0003eb	(908)	MOV	R0,R11
 00103918: 39800162	(909)	MOVB	0(R11),R2
 0010391c: 93407c4a	(909)	MOVW	R2,R10
 00103920: 7100c05f	(910)	CMPW	$48,R2,
 00103924: 5400008b	(910)	BLT	,103934(BRANCH)
 00103928: 93407d41	(910)	MOVW	R10,R1
 0010392c: 7100e55f	(910)	CMPW	$57,R10,
 00103930: 54003dad	(910)	BLE	,1040e4(BRANCH)
 00103934: 7100815f	(979)	CMPW	$32,R10,
 00103938: 540035ac	(979)	BGT	,103fec(BRANCH)
 0010393c: 7100815f	(979)	CMPW	$32,R10,
 00103940: 540034c0	(979)	BEQ	,103fd8(BRANCH)
 00103944: 51002544	(979)	SUBW	$9,R10,R4
 00103948: 7100109f	(979)	CMPW	$4,R4,
 0010394c: 54000148	(979)	BHI	,103974(BRANCH)
 00103950: 10000081 b8a47831 8b010231 d61f0220(979)	CASE	R4,R1
 00103960: 00000678	(979)	BCASE	,103fd8(BRANCH)
 00103964: 00000678	(979)	BCASE	,103fd8(BRANCH)
 00103968: 00000678	(979)	BCASE	,103fd8(BRANCH)
 0010396c: 00000678	(979)	BCASE	,103fd8(BRANCH)
 00103970: 00000678	(979)	BCASE	,103fd8(BRANCH)
 00103974: 93407d22	(1013)	MOVW	R9,R2
 00103978: 7100193f	(1013)	CMPW	$6,R9,
 0010397c: 54000188	(1013)	BHI	,1039ac(BRANCH)
 00103980: 10000084 b8a97891 8b040231 d61f0220(1013)	CASE	R9,R4
 00103990: 00000604	(1013)	BCASE	,103f94(BRANCH)
 00103994: 0000058c	(1013)	BCASE	,103f1c(BRANCH)
 00103998: 0000001c	(1013)	BCASE	,1039ac(BRANCH)
 0010399c: 00000570	(1013)	BCASE	,103f00(BRANCH)
 001039a0: 0000001c	(1013)	BCASE	,1039ac(BRANCH)
 001039a4: 00000568	(1013)	BCASE	,103ef8(BRANCH)
 001039a8: 00000564	(1013)	BCASE	,103ef4(BRANCH)
 001039ac: eb1f01df	(1015)	CMP	$0,R14,
 001039b0: 54000040	(1015)	BEQ	,1039b8(BRANCH)
 001039b4: f90001cb	(1016)	MOV	R11,0(R14)
 001039b8: 121e0181	(1018)	ANDW	$4,R12,R1
 001039bc: 6b1f003f	(1018)	CMPW	$0,R1,
 001039c0: 54000140	(1018)	BEQ	,1039e8(BRANCH)
 001039c4: b9865fe3	(1019)	MOVW	na-4(SP),R3
 001039c8: 6b1f007f	(1019)	CMPW	$0,R3,
 001039cc: 540000ed	(1019)	BLE	,1039e8(BRANCH)
 001039d0: b9865fe5	(1019)	MOVW	na-4(SP),R5
 001039d4: 9100b3e2	(1019)	MOV	$a-1588(SP),R2
 001039d8: 8b0200a5	(1019)	ADD	R2,R5
 001039dc: 389ff0a5	(1019)	MOVB	-1(R5),R5
 001039e0: 7100c0bf	(1019)	CMPW	$48,R5,
 001039e4: 54002800	(1019)	BEQ	,103ee4(BRANCH)
 001039e8: b9865fe3	(1021)	MOVW	na-4(SP),R3
 001039ec: 6b1f007f	(1021)	CMPW	$0,R3,
 001039f0: 540000a1	(1021)	BNE	,103a04(BRANCH)
 001039f4: fd400380	(1131)	FMOVD	$0.0+0(SB),F0
 001039f8: f84f07fe	(1131)	MOV	(R31)240!,R30
 001039fc: 9115c3ff	(0)	ADD	$1392,R31
 00103a00: d65f03c0	(0)	RET	,0(R30)
 00103a04: b9865fe5	(1023)	MOVW	na-4(SP),R5
 00103a08: 9100b3e6	(1023)	MOV	$a-1588(SP),R6
 00103a0c: 8b0600a5	(1023)	ADD	R6,R5
 00103a10: 390000bf	(1023)	MOVB	$0,0(R5)
 00103a14: 121e0181	(1024)	ANDW	$4,R12,R1
 00103a18: 6b1f003f	(1024)	CMPW	$0,R1,
 00103a1c: 54000061	(1024)	BNE	,103a28(BRANCH)
 00103a20: b9865fe3	(1025)	MOVW	na-4(SP),R3
 00103a24: b90653e3	(1025)	MOVW	R3,dp-16(SP)
 00103a28: 121f0185	(1026)	ANDW	$2,R12,R5
 00103a2c: 6b1f00bf	(1026)	CMPW	$0,R5,
 00103a30: 54000040	(1026)	BEQ	,103a38(BRANCH)
 00103a34: 4b0d03ed	(1027)	NEGW	R13,R13
 00103a38: b98653e3	(1028)	MOVW	dp-16(SP),R3
 00103a3c: 0b0d0061	(1028)	ADDW	R13,R3,R1
 00103a40: b90653e1	(1028)	MOVW	R1,dp-16(SP)
 00103a44: b98653e1	(1029)	MOVW	dp-16(SP),R1
 00103a48: 31051c3f	(1029)	CMNW	$327,R1,
 00103a4c: 54fffd4b	(1029)	BLT	,1039f4(BRANCH)
 00103a50: b98653e3	(1032)	MOVW	dp-16(SP),R3
 00103a54: 7104d87f	(1032)	CMPW	$310,R3,
 00103a58: 540001cd	(1032)	BLE	,103a90(BRANCH)
 00103a5c: 12000182	(1137)	ANDW	$1,R12,R2
 00103a60: 6b1f005f	(1137)	CMPW	$0,R2,
 00103a64: 540000c0	(1137)	BEQ	,103a7c(BRANCH)
 00103a68: 12800000	(1138)	MOVW	$-1,R0
 00103a6c: 940003ba	(1138)	BL	,Inf+0x104954(BRANCH)
 00103a70: f84f07fe	(1138)	MOV	(R31)240!,R30
 00103a74: 9115c3ff	(0)	ADD	$1392,R31
 00103a78: d65f03c0	(0)	RET	,0(R30)
 00103a7c: 9800bc80	(1139)	MOVW	$1,R0
 00103a80: 940003b5	(1139)	BL	,Inf+0x104954(BRANCH)
 00103a84: f84f07fe	(1139)	MOV	(R31)240!,R30
 00103a88: 9115c3ff	(0)	ADD	$1392,R31
 00103a8c: d65f03c0	(0)	RET	,0(R30)
 00103a90: b9064fff	(1039)	MOVW	$0,bp-20(SP)
 00103a94: b98653e5	(1040)	MOVW	dp-16(SP),R5
 00103a98: 6b1f00bf	(1040)	CMPW	$0,R5,
 00103a9c: 5400014d	(1040)	BLE	,103ac4(BRANCH)
 00103aa0: 9100b3e0	(1041)	MOV	$a-1588(SP),R0
 00103aa4: 911973e2	(1041)	MOV	$na-4(SP),R2
 00103aa8: f9000be2	(1041)	MOV	R2,16(R31)
 00103aac: 911943e4	(1041)	MOV	$dp-16(SP),R4
 00103ab0: f9000fe4	(1041)	MOV	R4,24(R31)
 00103ab4: 911933e1	(1041)	MOV	$bp-20(SP),R1
 00103ab8: f90013e1	(1041)	MOV	R1,32(R31)
 00103abc: 94000292	(1041)	BL	,divascii+0x104504(BRANCH)
 00103ac0: 17fffff5	(1040)	B	,103a94(BRANCH)
 00103ac4: b98653e3	(1042)	MOVW	dp-16(SP),R3
 00103ac8: 6b1f007f	(1042)	CMPW	$0,R3,
 00103acc: 54001fab	(1042)	BLT	,103ec0(BRANCH)
 00103ad0: 3980b3e5	(1042)	MOVB	a-1588(SP),R5
 00103ad4: 7100d4bf	(1042)	CMPW	$53,R5,
 00103ad8: 54001f4b	(1042)	BLT	,103ec0(BRANCH)
 00103adc: b9865fe5	(1044)	MOVW	na-4(SP),R5
 00103ae0: 9100b3e6	(1044)	MOV	$a-1588(SP),R6
 00103ae4: 8b0600a5	(1044)	ADD	R6,R5
 00103ae8: 390000bf	(1044)	MOVB	$0,0(R5)
 00103aec: b9864fe1	(1050)	MOVW	bp-20(SP),R1
 00103af0: 310ff43f	(1050)	CMNW	$1021,R1,
 00103af4: 5400050a	(1050)	BGE	,103b94(BRANCH)
 00103af8: b9865fe3	(1051)	MOVW	na-4(SP),R3
 00103afc: b9065be3	(1051)	MOVW	R3,ona-8(SP)
 00103b00: 9100b3e0	(1052)	MOV	$a-1588(SP),R0
 00103b04: 911973e5	(1052)	MOV	$na-4(SP),R5
 00103b08: f9000be5	(1052)	MOV	R5,16(R31)
 00103b0c: 12807f82	(1052)	MOVW	$-1021,R2
 00103b10: b9864fe4	(1052)	MOVW	bp-20(SP),R4
 00103b14: 4b040042	(1052)	SUBW	R4,R2,R2
 00103b18: b9001be2	(1052)	MOVW	R2,24(R31)
 00103b1c: 9400025d	(1052)	BL	,divby+0x104490(BRANCH)
 00103b20: b9865be9	(1052)	MOVW	ona-8(SP),R9
 00103b24: b9865fe2	(1053)	MOVW	na-4(SP),R2
 00103b28: 6b09005f	(1053)	CMPW	R9,R2,
 00103b2c: 5400028a	(1053)	BGE	,103b7c(BRANCH)
 00103b30: 9100b3e1	(1054)	MOV	$a-1588(SP),R1
 00103b34: 8b010120	(1054)	ADD	R1,R9,R0
 00103b38: b9865fe2	(1054)	MOVW	na-4(SP),R2
 00103b3c: cb020000	(1054)	SUB	R2,R0
 00103b40: 9100b3e1	(1054)	MOV	$a-1588(SP),R1
 00103b44: f9000be1	(1054)	MOV	R1,16(R31)
 00103b48: b9465fe3	(1054)	MOVWU	na-4(SP),R3
 00103b4c: b9001be3	(1054)	MOVW	R3,24(R31)
 00103b50: 940003fe	(1054)	BL	,memmove+0x104b48(BRANCH)
 00103b54: b9865be9	(1054)	MOVW	ona-8(SP),R9
 00103b58: 9100b3e0	(1055)	MOV	$a-1588(SP),R0
 00103b5c: 9800b6e1	(1055)	MOVW	$48,R1
 00103b60: b90013e1	(1055)	MOVW	R1,16(R31)
 00103b64: b9865fe1	(1055)	MOVW	na-4(SP),R1
 00103b68: 4b010123	(1055)	SUBW	R1,R9,R3
 00103b6c: b9001be3	(1055)	MOVW	R3,24(R31)
 00103b70: 97fff2c6	(1055)	BL	,memset+0x100688(BRANCH)
 00103b74: b9865be9	(1055)	MOVW	ona-8(SP),R9
 00103b78: b9065fe9	(1056)	MOVW	R9,na-4(SP)
 00103b7c: b9865fe1	(1058)	MOVW	na-4(SP),R1
 00103b80: 9100b3e2	(1058)	MOV	$a-1588(SP),R2
 00103b84: 8b020021	(1058)	ADD	R2,R1
 00103b88: 3900003f	(1058)	MOVB	$0,0(R1)
 00103b8c: 12807f82	(1059)	MOVW	$-1021,R2
 00103b90: b9064fe2	(1059)	MOVW	R2,bp-20(SP)
 00103b94: 2a1f03eb	(1063)	MOVW	$0,R11
 00103b98: 1800b3a3	(1064)	MOVWU	$1,R3
 00103b9c: 93407c6a	(1064)	MOVW	R3,R10
 00103ba0: 93407d69	(1065)	MOVW	R11,R9
 00103ba4: 7100253f	(1065)	CMPW	$9,R9,
 00103ba8: 540000ca	(1065)	BGE	,103bc0(BRANCH)
 00103bac: 9100b3e2	(1065)	MOV	$a-1588(SP),R2
 00103bb0: 8b020124	(1065)	ADD	R2,R9,R4
 00103bb4: 39800084	(1065)	MOVB	0(R4),R4
 00103bb8: 6b1f009f	(1065)	CMPW	$0,R4,
 00103bbc: 54001681	(1065)	BNE	,103e8c(BRANCH)
 00103bc0: 2a0b03e0	(1069)	MOVWU	R11,R0
 00103bc4: b90623eb	(1069)	MOVW	R11,num-64(SP)
 00103bc8: 52a20004	(1069)	MOVWU	$268435456,R4
 00103bcc: b90013e4	(1069)	MOVW	R4,16(R31)
 00103bd0: 2a0a03e1	(1069)	MOVWU	R10,R1
 00103bd4: b9061fea	(1069)	MOVW	R10,den-68(SP)
 00103bd8: b9001be1	(1069)	MOVW	R1,24(R31)
 00103bdc: 94000394	(1069)	BL	,umuldiv+0x104a2c(BRANCH)
 00103be0: b94623eb	(1069)	MOVWU	num-64(SP),R11
 00103be4: b9461fea	(1069)	MOVWU	den-68(SP),R10
 00103be8: 52a20009	(1069)	MOVW	$268435456,R9
 00103bec: b90637e0	(1069)	MOVW	R0,low-44(SP)
 00103bf0: 2a0b03e0	(1070)	MOVWU	R11,R0
 00103bf4: 11000400	(1070)	ADDW	$1,R0
 00103bf8: 2a0903e1	(1070)	MOVWU	R9,R1
 00103bfc: b90013e1	(1070)	MOVW	R1,16(R31)
 00103c00: 2a0a03e3	(1070)	MOVWU	R10,R3
 00103c04: b9001be3	(1070)	MOVW	R3,24(R31)
 00103c08: 94000389	(1070)	BL	,umuldiv+0x104a2c(BRANCH)
 00103c0c: 9800b32a	(1070)	MOVW	$268435455,R10
 00103c10: b9062fe0	(1070)	MOVW	R0,hig-52(SP)
 00103c14: 9800afc9	(1071)	MOVW	$1,R9
 00103c18: 7100093f	(1071)	CMPW	$2,R9,
 00103c1c: 5400018a	(1071)	BGE	,103c4c(BRANCH)
 00103c20: d37ef523	(1072)	LSL	$2,R9,R3
 00103c24: 9118d3e4	(1072)	MOV	$low-44(SP),R4
 00103c28: 8b040063	(1072)	ADD	R4,R3
 00103c2c: b900007f	(1072)	MOVW	$0,0(R3)
 00103c30: d37ef524	(1073)	LSL	$2,R9,R4
 00103c34: 9118b3e5	(1073)	MOV	$hig-52(SP),R5
 00103c38: 8b050084	(1073)	ADD	R5,R4
 00103c3c: 2a0a03e5	(1073)	MOVWU	R10,R5
 00103c40: b9000085	(1073)	MOVW	R5,0(R4)
 00103c44: 11000529	(1071)	ADDW	$1,R9,R9
 00103c48: 17fffff4	(1071)	B	,103c18(BRANCH)
 00103c4c: 2a1f03ea	(1079)	MOVW	$0,R10
 00103c50: 93407d49	(1080)	MOVW	R10,R9
 00103c54: 7100093f	(1080)	CMPW	$2,R9,
 00103c58: 5400048a	(1080)	BGE	,103ce8(BRANCH)
 00103c5c: d37ef521	(1081)	LSL	$2,R9,R1
 00103c60: 9118b3e3	(1081)	MOV	$hig-52(SP),R3
 00103c64: 8b030021	(1081)	ADD	R3,R1
 00103c68: b9400021	(1081)	MOVWU	0(R1),R1
 00103c6c: d37ef525	(1081)	LSL	$2,R9,R5
 00103c70: 9118d3e2	(1081)	MOV	$low-44(SP),R2
 00103c74: 8b0200a5	(1081)	ADD	R2,R5
 00103c78: b94000a5	(1081)	MOVWU	0(R5),R5
 00103c7c: 0b050021	(1081)	ADDW	R5,R1
 00103c80: d37ef523	(1081)	LSL	$2,R9,R3
 00103c84: 911893e4	(1081)	MOV	$mid-60(SP),R4
 00103c88: 8b040063	(1081)	ADD	R4,R3
 00103c8c: b9000061	(1081)	MOVW	R1,0(R3)
 00103c90: 6b1f015f	(1082)	CMPW	$0,R10,
 00103c94: 54000100	(1082)	BEQ	,103cb4(BRANCH)
 00103c98: d37ef522	(1083)	LSL	$2,R9,R2
 00103c9c: 911893e3	(1083)	MOV	$mid-60(SP),R3
 00103ca0: 8b030042	(1083)	ADD	R3,R2
 00103ca4: b9400043	(1083)	MOVWU	0(R2),R3
 00103ca8: 1800ae71 0b110063(1083)	ADDW	$268435456,R3
 00103cb0: b9000043	(1083)	MOVW	R3,0(R2)
 00103cb4: d37ef521	(1084)	LSL	$2,R9,R1
 00103cb8: 911893e2	(1084)	MOV	$mid-60(SP),R2
 00103cbc: 8b020021	(1084)	ADD	R2,R1
 00103cc0: b9400021	(1084)	MOVWU	0(R1),R1
 00103cc4: 1200002a	(1084)	ANDW	$1,R1,R10
 00103cc8: d37ef525	(1085)	LSL	$2,R9,R5
 00103ccc: 911893e6	(1085)	MOV	$mid-60(SP),R6
 00103cd0: 8b0600a5	(1085)	ADD	R6,R5
 00103cd4: b94000a1	(1085)	MOVWU	0(R5),R1
 00103cd8: 53017c21	(1085)	LSRW	$1,R1
 00103cdc: b90000a1	(1085)	MOVW	R1,0(R5)
 00103ce0: 11000529	(1080)	ADDW	$1,R9,R9
 00103ce4: 17ffffdc	(1080)	B	,103c54(BRANCH)
 00103ce8: 911893e0	(1087)	MOV	$mid-60(SP),R0
 00103cec: 94000131	(1087)	BL	,frnorm+0x1041b0(BRANCH)
 00103cf0: 9100b3e0	(1090)	MOV	$a-1588(SP),R0
 00103cf4: 911893e4	(1090)	MOV	$mid-60(SP),R4
 00103cf8: f9000be4	(1090)	MOV	R4,16(R31)
 00103cfc: 9400014a	(1090)	BL	,fpcmp+0x104224(BRANCH)
 00103d00: 6b1f001f	(1091)	CMPW	$0,R0,
 00103d04: 540008cd	(1091)	BLE	,103e1c(BRANCH)
 00103d08: 9800a82a	(1092)	MOVW	$1,R10
 00103d0c: 2a1f03e9	(1093)	MOVW	$0,R9
 00103d10: 7100093f	(1093)	CMPW	$2,R9,
 00103d14: 540002ca	(1093)	BGE	,103d6c(BRANCH)
 00103d18: d37ef525	(1094)	LSL	$2,R9,R5
 00103d1c: 9118d3e1	(1094)	MOV	$low-44(SP),R1
 00103d20: 8b0100a5	(1094)	ADD	R1,R5
 00103d24: b94000a5	(1094)	MOVWU	0(R5),R5
 00103d28: d37ef523	(1094)	LSL	$2,R9,R3
 00103d2c: 911893e4	(1094)	MOV	$mid-60(SP),R4
 00103d30: 8b040063	(1094)	ADD	R4,R3
 00103d34: b9400063	(1094)	MOVWU	0(R3),R3
 00103d38: 6b0300bf	(1094)	CMPW	R3,R5,
 00103d3c: 54000140	(1094)	BEQ	,103d64(BRANCH)
 00103d40: 2a1f03ea	(1095)	MOVW	$0,R10
 00103d44: d37ef521	(1096)	LSL	$2,R9,R1
 00103d48: 9118d3e2	(1096)	MOV	$low-44(SP),R2
 00103d4c: 8b020021	(1096)	ADD	R2,R1
 00103d50: d37ef522	(1096)	LSL	$2,R9,R2
 00103d54: 911893e3	(1096)	MOV	$mid-60(SP),R3
 00103d58: 8b030042	(1096)	ADD	R3,R2
 00103d5c: b9400042	(1096)	MOVWU	0(R2),R2
 00103d60: b9000022	(1096)	MOVW	R2,0(R1)
 00103d64: 11000529	(1093)	ADDW	$1,R9,R9
 00103d68: 17ffffea	(1093)	B	,103d10(BRANCH)
 00103d6c: 6b1f015f	(1098)	CMPW	$0,R10,
 00103d70: 54fff6e0	(1098)	BEQ	,103c4c(BRANCH)
 00103d74: b9462be2	(1116)	MOVWU	mid-56(SP),R2
 00103d78: 12000849	(1116)	ANDW	$7,R2,R9
 00103d7c: 2a0903e5	(1117)	MOVWU	R9,R5
 00103d80: b9462be2	(1117)	MOVWU	mid-56(SP),R2
 00103d84: 4b050045	(1117)	SUBW	R5,R2,R5
 00103d88: b9062be5	(1117)	MOVW	R5,mid-56(SP)
 00103d8c: 7100113f	(1118)	CMPW	$4,R9,
 00103d90: 540000cb	(1118)	BLT	,103da8(BRANCH)
 00103d94: b9462be2	(1119)	MOVWU	mid-56(SP),R2
 00103d98: 11002042	(1119)	ADDW	$8,R2
 00103d9c: b9062be2	(1119)	MOVW	R2,mid-56(SP)
 00103da0: 911893e0	(1120)	MOV	$mid-60(SP),R0
 00103da4: 94000103	(1120)	BL	,frnorm+0x1041b0(BRANCH)
 00103da8: fd400387	(1122)	FMOVD	$0.0+0(SB),F7
 00103dac: 2a1f03e9	(1123)	MOVW	$0,R9
 00103db0: 7100093f	(1123)	CMPW	$2,R9,
 00103db4: 5400018a	(1123)	BGE	,103de4(BRANCH)
 00103db8: d37ef523	(1124)	LSL	$2,R9,R3
 00103dbc: 911893e4	(1124)	MOV	$mid-60(SP),R4
 00103dc0: 8b040063	(1124)	ADD	R4,R3
 00103dc4: b9400063	(1124)	MOVWU	0(R3),R3
 00103dc8: 1e630061	(1124)	UCVTFWD	R3,F1
 00103dcc: 1e604020	(1124)	FMOVD	F1,F0
 00103dd0: fd40eb84	(1124)	FMOVD	$0.41b00000+0(SB),F4
 00103dd4: 1e6408e1	(1124)	FMULD	F4,F7,F1
 00103dd8: 1e602827	(1124)	FADDD	F0,F1,F7
 00103ddc: 11000529	(1123)	ADDW	$1,R9,R9
 00103de0: 17fffff4	(1123)	B	,103db0(BRANCH)
 00103de4: b98643e2	(1125)	MOVW	flag-32(SP),R2
 00103de8: 12000042	(1125)	ANDW	$1,R2
 00103dec: 6b1f005f	(1125)	CMPW	$0,R2,
 00103df0: 54000060	(1125)	BEQ	,103dfc(BRANCH)
 00103df4: fd400383	(1126)	FMOVD	$0.0+0(SB),F3
 00103df8: 1e673867	(1126)	FSUBD	F7,F3,F7
 00103dfc: fd0007e7	(1127)	FMOVD	F7,8(R31)
 00103e00: b9864fe2	(1127)	MOVW	bp-20(SP),R2
 00103e04: 5100e042	(1127)	SUBW	$56,R2
 00103e08: b90013e2	(1127)	MOVW	R2,16(R31)
 00103e0c: 940003fc	(1127)	BL	,ldexp+0x104dfc(BRANCH)
 00103e10: f84f07fe	(1128)	MOV	(R31)240!,R30
 00103e14: 9115c3ff	(0)	ADD	$1392,R31
 00103e18: d65f03c0	(0)	RET	,0(R30)
 00103e1c: 6b1f001f	(1102)	CMPW	$0,R0,
 00103e20: 540001ca	(1102)	BGE	,103e58(BRANCH)
 00103e24: 2a1f03e9	(1103)	MOVW	$0,R9
 00103e28: 7100093f	(1103)	CMPW	$2,R9,
 00103e2c: 54fff10a	(1103)	BGE	,103c4c(BRANCH)
 00103e30: d37ef525	(1104)	LSL	$2,R9,R5
 00103e34: 9118b3e6	(1104)	MOV	$hig-52(SP),R6
 00103e38: 8b0600a5	(1104)	ADD	R6,R5
 00103e3c: d37ef521	(1104)	LSL	$2,R9,R1
 00103e40: 911893e2	(1104)	MOV	$mid-60(SP),R2
 00103e44: 8b020021	(1104)	ADD	R2,R1
 00103e48: b9400021	(1104)	MOVWU	0(R1),R1
 00103e4c: b90000a1	(1104)	MOVW	R1,0(R5)
 00103e50: 11000529	(1103)	ADDW	$1,R9,R9
 00103e54: 17fffff5	(1103)	B	,103e28(BRANCH)
 00103e58: b9462be5	(1109)	MOVWU	mid-56(SP),R5
 00103e5c: 120008a9	(1109)	ANDW	$7,R5,R9
 00103e60: 7100113f	(1110)	CMPW	$4,R9,
 00103e64: 54fff881	(1110)	BNE	,103d74(BRANCH)
 00103e68: b9462be5	(1110)	MOVWU	mid-56(SP),R5
 00103e6c: 121d00a5	(1110)	ANDW	$8,R5
 00103e70: 6b1f00bf	(1110)	CMPW	$0,R5,
 00103e74: 54fff801	(1110)	BNE	,103d74(BRANCH)
 00103e78: 2a0903e2	(1111)	MOVWU	R9,R2
 00103e7c: b9462be4	(1111)	MOVWU	mid-56(SP),R4
 00103e80: 4b020082	(1111)	SUBW	R2,R4,R2
 00103e84: b9062be2	(1111)	MOVW	R2,mid-56(SP)
 00103e88: 17ffffbb	(1116)	B	,103d74(BRANCH)
 00103e8c: 2a0b03e1	(1066)	MOVWU	R11,R1
 00103e90: 531e7425	(1066)	LSLW	$2,R1,R5
 00103e94: 0b050021	(1066)	ADDW	R5,R1,R1
 00103e98: 531f7821	(1066)	LSLW	$1,R1,R1
 00103e9c: 2a0403e2	(1066)	MOVWU	R4,R2
 00103ea0: 0b010041	(1066)	ADDW	R1,R2,R1
 00103ea4: 5100c02b	(1066)	SUBW	$48,R1,R11
 00103ea8: 52800144	(1067)	MOVWU	$10,R4
 00103eac: 2a0a03e5	(1067)	MOVWU	R10,R5
 00103eb0: 9ba47ca4	(1067)	UMULL	R4,R5,R4
 00103eb4: 93407c8a	(1067)	MOVW	R4,R10
 00103eb8: 11000529	(1065)	ADDW	$1,R9,R9
 00103ebc: 17ffff3a	(1065)	B	,103ba4(BRANCH)
 00103ec0: 9100b3e0	(1043)	MOV	$a-1588(SP),R0
 00103ec4: 911973e4	(1043)	MOV	$na-4(SP),R4
 00103ec8: f9000be4	(1043)	MOV	R4,16(R31)
 00103ecc: 911943e1	(1043)	MOV	$dp-16(SP),R1
 00103ed0: f9000fe1	(1043)	MOV	R1,24(R31)
 00103ed4: 911933e3	(1043)	MOV	$bp-20(SP),R3
 00103ed8: f90013e3	(1043)	MOV	R3,32(R31)
 00103edc: 940001db	(1043)	BL	,mulascii+0x104648(BRANCH)
 00103ee0: 17fffef9	(1042)	B	,103ac4(BRANCH)
 00103ee4: b9865fe5	(1020)	MOVW	na-4(SP),R5
 00103ee8: 510004a5	(1020)	SUBW	$1,R5
 00103eec: b9065fe5	(1020)	MOVW	R5,na-4(SP)
 00103ef0: 17fffeb5	(1019)	B	,1039c4(BRANCH)
 00103ef4: d100056b	(1010)	SUB	$1,R11,R11
 00103ef8: d100056b	(1012)	SUB	$1,R11,R11
 00103efc: 17fffeac	(1015)	B	,1039ac(BRANCH)
 00103f00: eb1f01df	(1006)	CMP	$0,R14,
 00103f04: 54ffd780	(1006)	BEQ	,1039f4(BRANCH)
 00103f08: f90001cf	(1007)	MOV	R15,0(R14)
 00103f0c: fd400380	(1131)	FMOVD	$0.0+0(SB),F0
 00103f10: f84f07fe	(1131)	MOV	(R31)240!,R30
 00103f14: 9115c3ff	(0)	ADD	$1392,R31
 00103f18: d65f03c0	(0)	RET	,0(R30)
 00103f1c: aa0b03e0	(995)	MOV	R11,R0
 00103f20: f90307eb	(995)	MOV	R11,s-88(SP)
 00103f24: 91085385	(995)	MOV	$.string<>+4(SB),R5
 00103f28: f9000be5	(995)	MOV	R5,16(R31)
 00103f2c: 940001f8	(995)	BL	,xcmp+0x10470c(BRANCH)
 00103f30: f94307ea	(995)	MOV	s-88(SP),R10
 00103f34: f9433be9	(995)	MOV	aas+8(FP),R9
 00103f38: b98643ec	(995)	MOVW	flag-32(SP),R12
 00103f3c: 6b1f001f	(995)	CMPW	$0,R0,
 00103f40: 540000c1	(995)	BNE	,103f58(BRANCH)
 00103f44: eb1f013f	(996)	CMP	$0,R9,
 00103f48: 54ffd8a0	(996)	BEQ	,103a5c(BRANCH)
 00103f4c: 91002141	(997)	ADD	$8,R10,R1
 00103f50: f9000121	(997)	MOV	R1,0(R9)
 00103f54: 17fffec2	(1137)	B	,103a5c(BRANCH)
 00103f58: aa0a03e0	(1000)	MOV	R10,R0
 00103f5c: 91087781	(1000)	MOV	$.string<>+13(SB),R1
 00103f60: f9000be1	(1000)	MOV	R1,16(R31)
 00103f64: 940001ea	(1000)	BL	,xcmp+0x10470c(BRANCH)
 00103f68: f94307e9	(1000)	MOV	s-88(SP),R9
 00103f6c: f94337ef	(1000)	MOV	as+0(FP),R15
 00103f70: f9433bee	(1000)	MOV	aas+8(FP),R14
 00103f74: b98643ec	(1000)	MOVW	flag-32(SP),R12
 00103f78: 6b1f001f	(1000)	CMPW	$0,R0,
 00103f7c: 54fffc21	(1000)	BNE	,103f00(BRANCH)
 00103f80: eb1f01df	(1001)	CMP	$0,R14,
 00103f84: 54ffd6c0	(1001)	BEQ	,103a5c(BRANCH)
 00103f88: 91000d22	(1002)	ADD	$3,R9,R2
 00103f8c: f90001c2	(1002)	MOV	R2,0(R14)
 00103f90: 17fffeb3	(1137)	B	,103a5c(BRANCH)
 00103f94: aa0b03e0	(989)	MOV	R11,R0
 00103f98: f90307eb	(989)	MOV	R11,s-88(SP)
 00103f9c: 91084384	(989)	MOV	$.string<>+0(SB),R4
 00103fa0: f9000be4	(989)	MOV	R4,16(R31)
 00103fa4: 940001da	(989)	BL	,xcmp+0x10470c(BRANCH)
 00103fa8: f9433be9	(989)	MOV	aas+8(FP),R9
 00103fac: f94307eb	(989)	MOV	s-88(SP),R11
 00103fb0: 6b1f001f	(989)	CMPW	$0,R0,
 00103fb4: 54fffb41	(989)	BNE	,103f1c(BRANCH)
 00103fb8: eb1f013f	(990)	CMP	$0,R9,
 00103fbc: 54000060	(990)	BEQ	,103fc8(BRANCH)
 00103fc0: 91000d65	(991)	ADD	$3,R11,R5
 00103fc4: f9000125	(991)	MOV	R5,0(R9)
 00103fc8: 94000244	(1134)	BL	,NaN+0x1048d8(BRANCH)
 00103fcc: f84f07fe	(1134)	MOV	(R31)240!,R30
 00103fd0: 9115c3ff	(0)	ADD	$1392,R31
 00103fd4: d65f03c0	(0)	RET	,0(R30)
 00103fd8: 93407d25	(944)	MOVW	R9,R5
 00103fdc: 6b1f013f	(944)	CMPW	$0,R9,
 00103fe0: 54ffcca1	(944)	BNE	,103974(BRANCH)
 00103fe4: 9100056b	(908)	ADD	$1,R11,R11
 00103fe8: 17fffe4c	(909)	B	,103918(BRANCH)
 00103fec: 7100b95f	(979)	CMPW	$46,R10,
 00103ff0: 5400060c	(979)	BGT	,1040b0(BRANCH)
 00103ff4: 7100b95f	(979)	CMPW	$46,R10,
 00103ff8: 54000320	(979)	BEQ	,10405c(BRANCH)
 00103ffc: 7100ad5f	(979)	CMPW	$43,R10,
 00104000: 540000e0	(979)	BEQ	,10401c(BRANCH)
 00104004: 7100b55f	(979)	CMPW	$45,R10,
 00104008: 54ffcb61	(979)	BNE	,103974(BRANCH)
 0010400c: 6b1f013f	(948)	CMPW	$0,R9,
 00104010: 54000201	(948)	BNE	,104050(BRANCH)
 00104014: 3200018c	(949)	ORRW	$1,R12,R12
 00104018: b90643ec	(949)	MOVW	R12,flag-32(SP)
 0010401c: 93407d25	(953)	MOVW	R9,R5
 00104020: 6b1f013f	(953)	CMPW	$0,R9,
 00104024: 54000081	(953)	BNE	,104034(BRANCH)
 00104028: 98008f29	(954)	MOVW	$1,R9
 0010402c: 9100056b	(908)	ADD	$1,R11,R11
 00104030: 17fffe3a	(909)	B	,103918(BRANCH)
 00104034: 93407d23	(956)	MOVW	R9,R3
 00104038: 7100153f	(956)	CMPW	$5,R9,
 0010403c: 54ffc9c1	(956)	BNE	,103974(BRANCH)
 00104040: 98009025	(957)	MOVW	$6,R5
 00104044: 93407ca9	(957)	MOVW	R5,R9
 00104048: 9100056b	(908)	ADD	$1,R11,R11
 0010404c: 17fffe33	(909)	B	,103918(BRANCH)
 00104050: 321f018c	(951)	ORRW	$2,R12,R12
 00104054: b90643ec	(951)	MOVW	R12,flag-32(SP)
 00104058: 17fffff1	(953)	B	,10401c(BRANCH)
 0010405c: 321e018c	(962)	ORRW	$4,R12,R12
 00104060: b90643ec	(962)	MOVW	R12,flag-32(SP)
 00104064: b9865fe4	(963)	MOVW	na-4(SP),R4
 00104068: b90653e4	(963)	MOVW	R4,dp-16(SP)
 0010406c: 93407d21	(964)	MOVW	R9,R1
 00104070: 6b1f013f	(964)	CMPW	$0,R9,
 00104074: 54000160	(964)	BEQ	,1040a0(BRANCH)
 00104078: 93407d23	(964)	MOVW	R9,R3
 0010407c: 7100053f	(964)	CMPW	$1,R9,
 00104080: 54000100	(964)	BEQ	,1040a0(BRANCH)
 00104084: 93407d21	(968)	MOVW	R9,R1
 00104088: 7100093f	(968)	CMPW	$2,R9,
 0010408c: 54ffc741	(968)	BNE	,103974(BRANCH)
 00104090: 98008cc3	(969)	MOVW	$4,R3
 00104094: 93407c69	(969)	MOVW	R3,R9
 00104098: 9100056b	(908)	ADD	$1,R11,R11
 0010409c: 17fffe1f	(909)	B	,103918(BRANCH)
 001040a0: 98008d05	(965)	MOVW	$3,R5
 001040a4: 93407ca9	(965)	MOVW	R5,R9
 001040a8: 9100056b	(908)	ADD	$1,R11,R11
 001040ac: 17fffe1b	(909)	B	,103918(BRANCH)
 001040b0: 7101155f	(979)	CMPW	$69,R10,
 001040b4: 54000060	(979)	BEQ	,1040c0(BRANCH)
 001040b8: 7101955f	(979)	CMPW	$101,R10,
 001040bc: 54ffc5c1	(979)	BNE	,103974(BRANCH)
 001040c0: 7100093f	(975)	CMPW	$2,R9,
 001040c4: 54000080	(975)	BEQ	,1040d4(BRANCH)
 001040c8: 93407d21	(975)	MOVW	R9,R1
 001040cc: 7100113f	(975)	CMPW	$4,R9,
 001040d0: 54ffc521	(975)	BNE	,103974(BRANCH)
 001040d4: 528000a3	(976)	MOVW	$5,R3
 001040d8: 93407c69	(976)	MOVW	R3,R9
 001040dc: 9100056b	(908)	ADD	$1,R11,R11
 001040e0: 17fffe0e	(909)	B	,103918(BRANCH)
 001040e4: 93407d24	(927)	MOVW	R9,R4
 001040e8: 71001d3f	(927)	CMPW	$7,R9,
 001040ec: 540001a8	(927)	BHI	,104120(BRANCH)
 001040f0: 10000081 b8a97831 8b010231 d61f0220(927)	CASE	R9,R1
 00104100: 000000a4	(927)	BCASE	,1041a4(BRANCH)
 00104104: 000000a4	(927)	BCASE	,1041a4(BRANCH)
 00104108: 000000a4	(927)	BCASE	,1041a4(BRANCH)
 0010410c: 0000009c	(927)	BCASE	,10419c(BRANCH)
 00104110: 0000009c	(927)	BCASE	,10419c(BRANCH)
 00104114: 00000078	(927)	BCASE	,104178(BRANCH)
 00104118: 00000078	(927)	BCASE	,104178(BRANCH)
 0010411c: 00000078	(927)	BCASE	,104178(BRANCH)
 00104120: b9865fe2	(929)	MOVW	na-4(SP),R2
 00104124: 6b1f005f	(929)	CMPW	$0,R2,
 00104128: 54000061	(929)	BNE	,104134(BRANCH)
 0010412c: 7100c15f	(929)	CMPW	$48,R10,
 00104130: 540001a0	(929)	BEQ	,104164(BRANCH)
 00104134: b9865fe4	(933)	MOVW	na-4(SP),R4
 00104138: 7116a89f	(933)	CMPW	$1450,R4,
 0010413c: 54fff54a	(933)	BGE	,103fe4(BRANCH)
 00104140: b9865fe1	(934)	MOVW	na-4(SP),R1
 00104144: 11000422	(934)	ADDW	$1,R1,R2
 00104148: b9065fe2	(934)	MOVW	R2,na-4(SP)
 0010414c: 9100b3e4	(934)	MOV	$a-1588(SP),R4
 00104150: 8b040021	(934)	ADD	R4,R1
 00104154: 93407d45	(934)	MOVW	R10,R5
 00104158: 3900002a	(934)	MOVB	R10,0(R1)
 0010415c: 9100056b	(908)	ADD	$1,R11,R11
 00104160: 17fffdee	(909)	B	,103918(BRANCH)
 00104164: b98653e1	(930)	MOVW	dp-16(SP),R1
 00104168: 51000421	(930)	SUBW	$1,R1
 0010416c: b90653e1	(930)	MOVW	R1,dp-16(SP)
 00104170: 9100056b	(908)	ADD	$1,R11,R11
 00104174: 17fffde9	(909)	B	,103918(BRANCH)
 00104178: 98008809	(925)	MOVW	$7,R9
 0010417c: 531e75a5	(926)	LSLW	$2,R13,R5
 00104180: 0b0501a1	(926)	ADDW	R5,R13,R1
 00104184: 531f7821	(926)	LSLW	$1,R1,R1
 00104188: 0b0a0021	(926)	ADDW	R10,R1
 0010418c: 5100c021	(926)	SUBW	$48,R1,R1
 00104190: 93407c2d	(926)	MOVW	R1,R13
 00104194: 9100056b	(908)	ADD	$1,R11,R11
 00104198: 17fffde0	(909)	B	,103918(BRANCH)
 0010419c: 98008469	(919)	MOVW	$4,R9
 001041a0: 17ffffe0	(929)	B	,104120(BRANCH)
 001041a4: 98008463	(915)	MOVW	$2,R3
 001041a8: 93407c69	(915)	MOVW	R3,R9
 001041ac: 17ffffdd	(929)	B	,104120(BRANCH)

 001041b0:		(1143)	TEXT	frnorm<>+0(SB),R0,$8
 001041b0: d10043ff	(1143)	SUB	$16,R31
 001041b4: aa0003ea	(1143)	MOV	R0,R10
 001041b8: 2a1f03eb	(1147)	MOVW	$0,R11
 001041bc: 98008289	(1148)	MOVW	$1,R9
 001041c0: 6b1f013f	(1148)	CMPW	$0,R9,
 001041c4: 5400024d	(1148)	BLE	,10420c(BRANCH)
 001041c8: d37ef521	(1149)	LSL	$2,R9,R1
 001041cc: 8b0a0021	(1149)	ADD	R10,R1
 001041d0: 2a0b03e3	(1149)	MOVWU	R11,R3
 001041d4: b9400025	(1149)	MOVWU	0(R1),R5
 001041d8: 0b0300a3	(1149)	ADDW	R3,R5,R3
 001041dc: b9000023	(1149)	MOVW	R3,0(R1)
 001041e0: d37ef523	(1150)	LSL	$2,R9,R3
 001041e4: 8b0a0063	(1150)	ADD	R10,R3
 001041e8: b9400063	(1150)	MOVWU	0(R3),R3
 001041ec: 531c7c6b	(1150)	LSRW	$28,R3,R11
 001041f0: d37ef523	(1151)	LSL	$2,R9,R3
 001041f4: 8b0a0063	(1151)	ADD	R10,R3
 001041f8: b9400065	(1151)	MOVWU	0(R3),R5
 001041fc: 12006ca5	(1151)	ANDW	$268435455,R5
 00104200: b9000065	(1151)	MOVW	R5,0(R3)
 00104204: 51000529	(1148)	SUBW	$1,R9,R9
 00104208: 17ffffee	(1148)	B	,1041c0(BRANCH)
 0010420c: 2a0b03e5	(1153)	MOVWU	R11,R5
 00104210: b9400142	(1153)	MOVWU	0(R10),R2
 00104214: 0b050045	(1153)	ADDW	R5,R2,R5
 00104218: b9000145	(1153)	MOVW	R5,0(R10)
 0010421c: 910043ff	(1153)	ADD	$16,R31
 00104220: d65f03c0	(1153)	RET	,0(R30)

 00104224:		(1157)	TEXT	fpcmp<>+0(SB),R0,$40
 00104224: f81d0ffe	(1157)	MOV	R30,-48(R31)!
 00104228: f94023ea	(1157)	MOV	f+8(FP),R10
 0010422c: f9001fe0	(1157)	MOV	R0,a+0(FP)
 00104230: 2a1f03e9	(1162)	MOVW	$0,R9
 00104234: 7100093f	(1162)	CMPW	$2,R9,
 00104238: 5400014a	(1162)	BGE	,104260(BRANCH)
 0010423c: d37ef521	(1163)	LSL	$2,R9,R1
 00104240: 9100a3e2	(1163)	MOV	$tf-8(SP),R2
 00104244: 8b020021	(1163)	ADD	R2,R1
 00104248: d37ef522	(1163)	LSL	$2,R9,R2
 0010424c: 8b0a0042	(1163)	ADD	R10,R2
 00104250: b9400042	(1163)	MOVWU	0(R2),R2
 00104254: b9000022	(1163)	MOVW	R2,0(R1)
 00104258: 11000529	(1162)	ADDW	$1,R9,R9
 0010425c: 17fffff6	(1162)	B	,104234(BRANCH)
 00104260: 2a1f03e9	(1167)	MOVW	$0,R9
 00104264: 7100093f	(1167)	CMPW	$2,R9,
 00104268: 540001ca	(1167)	BGE	,1042a0(BRANCH)
 0010426c: d37ef522	(1168)	LSL	$2,R9,R2
 00104270: 9100a3e3	(1168)	MOV	$tf-8(SP),R3
 00104274: 8b030042	(1168)	ADD	R3,R2
 00104278: d37ef523	(1168)	LSL	$2,R9,R3
 0010427c: 9100a3e5	(1168)	MOV	$tf-8(SP),R5
 00104280: 8b050063	(1168)	ADD	R5,R3
 00104284: b9400063	(1168)	MOVWU	0(R3),R3
 00104288: 531e7464	(1168)	LSLW	$2,R3,R4
 0010428c: 0b040063	(1168)	ADDW	R4,R3,R3
 00104290: 531f7863	(1168)	LSLW	$1,R3,R3
 00104294: b9000043	(1168)	MOVW	R3,0(R2)
 00104298: 11000529	(1167)	ADDW	$1,R9,R9
 0010429c: 17fffff2	(1167)	B	,104264(BRANCH)
 001042a0: 9100a3e0	(1169)	MOV	$tf-8(SP),R0
 001042a4: 97ffffc3	(1169)	BL	,frnorm+0x1041b0(BRANCH)
 001042a8: f9401feb	(1169)	MOV	a+0(FP),R11
 001042ac: b9402be4	(1170)	MOVWU	tf-8(SP),R4
 001042b0: 531c7c84	(1170)	LSRW	$28,R4
 001042b4: 1100c08a	(1170)	ADDW	$48,R4,R10
 001042b8: b9402be2	(1171)	MOVWU	tf-8(SP),R2
 001042bc: 12006c42	(1171)	ANDW	$268435455,R2
 001042c0: b9002be2	(1171)	MOVW	R2,tf-8(SP)
 001042c4: 39800165	(1174)	MOVB	0(R11),R5
 001042c8: 6b1f00bf	(1175)	CMPW	$0,R5,
 001042cc: 540002e1	(1175)	BNE	,104328(BRANCH)
 001042d0: 7100c15f	(1176)	CMPW	$48,R10,
 001042d4: 5400008d	(1176)	BLE	,1042e4(BRANCH)
 001042d8: 12800000	(1177)	MOVW	$-1,R0
 001042dc: f84307fe	(1177)	MOV	(R31)48!,R30
 001042e0: d65f03c0	(1177)	RET	,0(R30)
 001042e4: b9402be1	(1178)	MOVWU	tf-8(SP),R1
 001042e8: 6b1f003f	(1178)	CMPW	$0,R1,
 001042ec: 54fffba1	(1178)	BNE	,104260(BRANCH)
 001042f0: 980078e9	(1180)	MOVW	$1,R9
 001042f4: 7100093f	(1180)	CMPW	$2,R9,
 001042f8: 5400012a	(1180)	BGE	,10431c(BRANCH)
 001042fc: d37ef524	(1181)	LSL	$2,R9,R4
 00104300: 9100a3e5	(1181)	MOV	$tf-8(SP),R5
 00104304: 8b050084	(1181)	ADD	R5,R4
 00104308: b9400084	(1181)	MOVWU	0(R4),R4
 0010430c: 6b1f009f	(1181)	CMPW	$0,R4,
 00104310: 54fffa81	(1181)	BNE	,104260(BRANCH)
 00104314: 11000529	(1180)	ADDW	$1,R9,R9
 00104318: 17fffff7	(1180)	B	,1042f4(BRANCH)
 0010431c: 2a1f03e0	(1183)	MOVW	$0,R0
 00104320: f84307fe	(1183)	MOV	(R31)48!,R30
 00104324: d65f03c0	(1183)	RET	,0(R30)
 00104328: 6b0a00bf	(1185)	CMPW	R10,R5,
 0010432c: 5400008d	(1185)	BLE	,10433c(BRANCH)
 00104330: 980076e0	(1186)	MOVW	$1,R0
 00104334: f84307fe	(1186)	MOV	(R31)48!,R30
 00104338: d65f03c0	(1186)	RET	,0(R30)
 0010433c: 6b0a00bf	(1187)	CMPW	R10,R5,
 00104340: 5400008a	(1187)	BGE	,104350(BRANCH)
 00104344: 12800000	(1188)	MOVW	$-1,R0
 00104348: f84307fe	(1188)	MOV	(R31)48!,R30
 0010434c: d65f03c0	(1188)	RET	,0(R30)
 00104350: 91000565	(1189)	ADD	$1,R11,R5
 00104354: f9001fe5	(1189)	MOV	R5,a+0(FP)
 00104358: 17ffffc2	(1167)	B	,104260(BRANCH)

 0010435c:		(1195)	TEXT	_divby<>+0(SB),R0,$24
 0010435c: d10083ff	(1195)	SUB	$32,R31
 00104360: f9401bee	(1195)	MOV	na+8(FP),R14
 00104364: b9803bea	(1195)	MOVW	b+16(FP),R10
 00104368: aa0003ec	(1195)	MOV	R0,R12
 0010436c: aa0003eb	(1200)	MOV	R0,R11
 00104370: 2a1f03e9	(1201)	MOVW	$0,R9
 00104374: 1aca2921	(1202)	ASRW	R10,R9,R1
 00104378: 6b1f003f	(1202)	CMPW	$0,R1,
 0010437c: 540005e1	(1202)	BNE	,104438(BRANCH)
 00104380: aa0c03ed	(1203)	MOV	R12,R13
 00104384: 9100058c	(1203)	ADD	$1,R12,R12
 00104388: 398001ad	(1203)	MOVB	0(R13),R13
 0010438c: 6b1f01bf	(1204)	CMPW	$0,R13,
 00104390: 540003e1	(1204)	BNE	,10440c(BRANCH)
 00104394: 6b1f013f	(1205)	CMPW	$0,R9,
 00104398: 540000e0	(1205)	BEQ	,1043b4(BRANCH)
 0010439c: 531e7523	(1206)	LSLW	$2,R9,R3
 001043a0: 0b030125	(1206)	ADDW	R3,R9,R5
 001043a4: 531f78ac	(1206)	LSLW	$1,R5,R12
 001043a8: 1aca2985	(1207)	ASRW	R10,R12,R5
 001043ac: 6b1f00bf	(1207)	CMPW	$0,R5,
 001043b0: 540002a0	(1207)	BEQ	,104404(BRANCH)
 001043b4: 6b1f013f	(1227)	CMPW	$0,R9,
 001043b8: 54000200	(1227)	BEQ	,1043f8(BRANCH)
 001043bc: 531e7524	(1228)	LSLW	$2,R9,R4
 001043c0: 0b040121	(1228)	ADDW	R4,R9,R1
 001043c4: 531f7829	(1228)	LSLW	$1,R1,R9
 001043c8: 1aca2921	(1229)	ASRW	R10,R9,R1
 001043cc: 1aca2022	(1230)	LSLW	R10,R1,R2
 001043d0: 4b020129	(1230)	SUBW	R2,R9,R9
 001043d4: aa0b03e5	(1231)	MOV	R11,R5
 001043d8: 9100056b	(1231)	ADD	$1,R11,R11
 001043dc: 1100c026	(1231)	ADDW	$48,R1,R6
 001043e0: 390000a6	(1231)	MOVB	R6,0(R5)
 001043e4: b98001c2	(1232)	MOVW	0(R14),R2
 001043e8: 11000442	(1232)	ADDW	$1,R2
 001043ec: b90001c2	(1232)	MOVW	R2,0(R14)
 001043f0: 6b1f013f	(1227)	CMPW	$0,R9,
 001043f4: 54fffe41	(1227)	BNE	,1043bc(BRANCH)
 001043f8: 3900017f	(1234)	MOVB	$0,0(R11)
 001043fc: 910083ff	(1234)	ADD	$32,R31
 00104400: d65f03c0	(1234)	RET	,0(R30)
 00104404: 93407d89	(1209)	MOVW	R12,R9
 00104408: 17ffffe3	(1205)	B	,104394(BRANCH)
 0010440c: 531e7521	(1213)	LSLW	$2,R9,R1
 00104410: 0b010122	(1213)	ADDW	R1,R9,R2
 00104414: 531f7842	(1213)	LSLW	$1,R2,R2
 00104418: 0b0d0042	(1213)	ADDW	R13,R2
 0010441c: 5100c049	(1213)	SUBW	$48,R2,R9
 00104420: b98001c2	(1214)	MOVW	0(R14),R2
 00104424: 51000442	(1214)	SUBW	$1,R2
 00104428: b90001c2	(1214)	MOVW	R2,0(R14)
 0010442c: 1aca2921	(1202)	ASRW	R10,R9,R1
 00104430: 6b1f003f	(1202)	CMPW	$0,R1,
 00104434: 54fffa60	(1202)	BEQ	,104380(BRANCH)
 00104438: 1aca2925	(1217)	ASRW	R10,R9,R5
 0010443c: 1aca20a1	(1218)	LSLW	R10,R5,R1
 00104440: 4b010129	(1218)	SUBW	R1,R9,R9
 00104444: aa0b03e4	(1219)	MOV	R11,R4
 00104448: 9100056b	(1219)	ADD	$1,R11,R11
 0010444c: 1100c0a5	(1219)	ADDW	$48,R5
 00104450: 39000085	(1219)	MOVB	R5,0(R4)
 00104454: aa0c03ed	(1220)	MOV	R12,R13
 00104458: 9100058c	(1220)	ADD	$1,R12,R12
 0010445c: 398001ad	(1220)	MOVB	0(R13),R13
 00104460: 6b1f01bf	(1221)	CMPW	$0,R13,
 00104464: 540000a1	(1221)	BNE	,104478(BRANCH)
 00104468: b98001c1	(1225)	MOVW	0(R14),R1
 0010446c: 11000421	(1225)	ADDW	$1,R1
 00104470: b90001c1	(1225)	MOVW	R1,0(R14)
 00104474: 17ffffd0	(1227)	B	,1043b4(BRANCH)
 00104478: 531e7525	(1223)	LSLW	$2,R9,R5
 0010447c: 0b050121	(1223)	ADDW	R5,R9,R1
 00104480: 531f7821	(1223)	LSLW	$1,R1,R1
 00104484: 0b0d0021	(1223)	ADDW	R13,R1
 00104488: 5100c029	(1223)	SUBW	$48,R1,R9
 0010448c: 17ffffeb	(1217)	B	,104438(BRANCH)

 00104490:		(1238)	TEXT	divby<>+0(SB),R0,$24
 00104490: f81e0ffe	(1238)	MOV	R30,-32(R31)!
 00104494: f9401bea	(1238)	MOV	na+8(FP),R10
 00104498: b9803be9	(1238)	MOVW	b+16(FP),R9
 0010449c: aa0003eb	(1238)	MOV	R0,R11
 001044a0: b9003be9	(1240)	MOVW	R9,b+16(FP)
 001044a4: 7100253f	(1240)	CMPW	$9,R9,
 001044a8: 540001ed	(1240)	BLE	,1044e4(BRANCH)
 001044ac: aa0b03e0	(1241)	MOV	R11,R0
 001044b0: f90017eb	(1241)	MOV	R11,a+0(FP)
 001044b4: f9000bea	(1241)	MOV	R10,16(R31)
 001044b8: 52800124	(1241)	MOVW	$9,R4
 001044bc: b9001be4	(1241)	MOVW	R4,24(R31)
 001044c0: 97ffffa7	(1241)	BL	,_divby+0x10435c(BRANCH)
 001044c4: b9803be9	(1241)	MOVW	b+16(FP),R9
 001044c8: f94017eb	(1241)	MOV	a+0(FP),R11
 001044cc: f9401bea	(1241)	MOV	na+8(FP),R10
 001044d0: b9800141	(1242)	MOVW	0(R10),R1
 001044d4: 8b0b0021	(1242)	ADD	R11,R1
 001044d8: 3900003f	(1242)	MOVB	$0,0(R1)
 001044dc: 51002529	(1243)	SUBW	$9,R9,R9
 001044e0: 17fffff0	(1240)	B	,1044a0(BRANCH)
 001044e4: 6b1f013f	(1245)	CMPW	$0,R9,
 001044e8: 540000ad	(1245)	BLE	,1044fc(BRANCH)
 001044ec: aa0b03e0	(1246)	MOV	R11,R0
 001044f0: f9000bea	(1246)	MOV	R10,16(R31)
 001044f4: b9001be9	(1246)	MOVW	R9,24(R31)
 001044f8: 97ffff99	(1246)	BL	,_divby+0x10435c(BRANCH)
 001044fc: f84207fe	(1246)	MOV	(R31)32!,R30
 00104500: d65f03c0	(1246)	RET	,0(R30)

 00104504:		(1264)	TEXT	divascii<>+0(SB),R0,$40
 00104504: f81d0ffe	(1264)	MOV	R30,-48(R31)!
 00104508: f94027e9	(1264)	MOV	dp+16(FP),R9
 0010450c: aa0003ea	(1264)	MOV	R0,R10
 00104510: b9800129	(1269)	MOVW	0(R9),R9
 00104514: 7100293f	(1270)	CMPW	$10,R9,
 00104518: 5400004b	(1270)	BLT	,104520(BRANCH)
 0010451c: 52800129	(1271)	MOVW	$9,R9
 00104520: b9002be9	(1272)	MOVW	R9,d-8(SP)
 00104524: d37ced21	(1272)	LSL	$4,R9,R1
 00104528: 912a0382	(1272)	MOV	$tab1<>+0(SB),R2
 0010452c: 8b020021	(1272)	ADD	R2,R1
 00104530: b9800023	(1273)	MOVW	0(R1),R3
 00104534: b9002fe3	(1273)	MOVW	R3,b-4(SP)
 00104538: aa0a03e0	(1274)	MOV	R10,R0
 0010453c: f9001fea	(1274)	MOV	R10,a+0(FP)
 00104540: f9400425	(1274)	MOV	8(R1),R5
 00104544: f9000be5	(1274)	MOV	R5,16(R31)
 00104548: b9400425	(1274)	MOVWU	4(R1),R5
 0010454c: b9001be5	(1274)	MOVW	R5,24(R31)
 00104550: 940001b8	(1274)	BL	,memcmp+0x104c30(BRANCH)
 00104554: f9401fee	(1274)	MOV	a+0(FP),R14
 00104558: f94027ed	(1274)	MOV	dp+16(FP),R13
 0010455c: f9402bec	(1274)	MOV	bp+24(FP),R12
 00104560: f94023eb	(1274)	MOV	na+8(FP),R11
 00104564: b9802fea	(1274)	MOVW	b-4(SP),R10
 00104568: b9802be9	(1274)	MOVW	d-8(SP),R9
 0010456c: 6b1f001f	(1274)	CMPW	$0,R0,
 00104570: 5400004d	(1274)	BLE	,104578(BRANCH)
 00104574: 51000529	(1275)	SUBW	$1,R9,R9
 00104578: b98001a2	(1276)	MOVW	0(R13),R2
 0010457c: 4b090045	(1276)	SUBW	R9,R2,R5
 00104580: b90001a5	(1276)	MOVW	R5,0(R13)
 00104584: b9800184	(1277)	MOVW	0(R12),R4
 00104588: 0b0a0082	(1277)	ADDW	R10,R4,R2
 0010458c: b9000182	(1277)	MOVW	R2,0(R12)
 00104590: aa0e03e0	(1278)	MOV	R14,R0
 00104594: f9000beb	(1278)	MOV	R11,16(R31)
 00104598: b9001bea	(1278)	MOVW	R10,24(R31)
 0010459c: 97ffffbd	(1278)	BL	,divby+0x104490(BRANCH)
 001045a0: f84307fe	(1278)	MOV	(R31)48!,R30
 001045a4: d65f03c0	(1278)	RET	,0(R30)

 001045a8:		(1282)	TEXT	mulby<>+0(SB),R0,$8
 001045a8: d10043ff	(1282)	SUB	$16,R31
 001045ac: b98033ee	(1282)	MOVW	b+24(FP),R14
 001045b0: f94017eb	(1282)	MOV	q+16(FP),R11
 001045b4: f94013ea	(1282)	MOV	p+8(FP),R10
 001045b8: aa0003ed	(1282)	MOV	R0,R13
 001045bc: 2a1f03e9	(1286)	MOVW	$0,R9
 001045c0: 3900015f	(1287)	MOVB	$0,0(R10)
 001045c4: d100056b	(1289)	SUB	$1,R11,R11
 001045c8: eb0d017f	(1290)	CMP	R13,R11,
 001045cc: 54000222	(1290)	BHS	,104610(BRANCH)
 001045d0: 6b1f013f	(1299)	CMPW	$0,R9,
 001045d4: 540001a0	(1299)	BEQ	,104608(BRANCH)
 001045d8: 93407d2b	(1300)	MOVW	R9,R11
 001045dc: 52800144	(1301)	MOVW	$10,R4
 001045e0: 1ac40d29	(1301)	SDIVW	R4,R9,R9
 001045e4: 531e7524	(1302)	LSLW	$2,R9,R4
 001045e8: 0b040121	(1302)	ADDW	R4,R9,R1
 001045ec: 531f7821	(1302)	LSLW	$1,R1,R1
 001045f0: 4b01016b	(1302)	SUBW	R1,R11,R11
 001045f4: d100054a	(1303)	SUB	$1,R10,R10
 001045f8: 1100c163	(1304)	ADDW	$48,R11,R3
 001045fc: 39000143	(1304)	MOVB	R3,0(R10)
 00104600: 6b1f013f	(1299)	CMPW	$0,R9,
 00104604: 54fffea1	(1299)	BNE	,1045d8(BRANCH)
 00104608: 910043ff	(1304)	ADD	$16,R31
 0010460c: d65f03c0	(1304)	RET	,0(R30)
 00104610: 39800164	(1292)	MOVB	0(R11),R4
 00104614: 5100c084	(1292)	SUBW	$48,R4
 00104618: 1ace2081	(1293)	LSLW	R14,R4,R1
 0010461c: 0b090021	(1293)	ADDW	R9,R1
 00104620: 52800143	(1294)	MOVW	$10,R3
 00104624: 1ac30c29	(1294)	SDIVW	R3,R1,R9
 00104628: 531e7523	(1295)	LSLW	$2,R9,R3
 0010462c: 0b030125	(1295)	ADDW	R3,R9,R5
 00104630: 531f78a5	(1295)	LSLW	$1,R5,R5
 00104634: 4b05002c	(1295)	SUBW	R5,R1,R12
 00104638: d100054a	(1296)	SUB	$1,R10,R10
 0010463c: 1100c182	(1297)	ADDW	$48,R12,R2
 00104640: 39000142	(1297)	MOVB	R2,0(R10)
 00104644: 17ffffe0	(1289)	B	,1045c4(BRANCH)

 00104648:		(1323)	TEXT	mulascii<>+0(SB),R0,$56
 00104648: f81c0ffe	(1323)	MOV	R30,-64(R31)!
 0010464c: f9402fe9	(1323)	MOV	dp+16(FP),R9
 00104650: aa0003ea	(1323)	MOV	R0,R10
 00104654: b9800124	(1329)	MOVW	0(R9),R4
 00104658: 4b0403e9	(1329)	NEGW	R4,R9
 0010465c: 7100293f	(1330)	CMPW	$10,R9,
 00104660: 5400004b	(1330)	BLT	,104668(BRANCH)
 00104664: 52800129	(1331)	MOVW	$9,R9
 00104668: b90037e9	(1332)	MOVW	R9,d-12(SP)
 0010466c: d37ced23	(1332)	LSL	$4,R9,R3
 00104670: 912c8384	(1332)	MOV	$tab2<>+0(SB),R4
 00104674: 8b040063	(1332)	ADD	R4,R3
 00104678: b9800065	(1333)	MOVW	0(R3),R5
 0010467c: b90033e5	(1333)	MOVW	R5,b-16(SP)
 00104680: aa0a03e0	(1334)	MOV	R10,R0
 00104684: f90027ea	(1334)	MOV	R10,a+0(FP)
 00104688: f9400462	(1334)	MOV	8(R3),R2
 0010468c: f9000be2	(1334)	MOV	R2,16(R31)
 00104690: b9400462	(1334)	MOVWU	4(R3),R2
 00104694: b9001be2	(1334)	MOVW	R2,24(R31)
 00104698: 94000166	(1334)	BL	,memcmp+0x104c30(BRANCH)
 0010469c: f9402fef	(1334)	MOV	dp+16(FP),R15
 001046a0: f94033ee	(1334)	MOV	bp+24(FP),R14
 001046a4: f94027ed	(1334)	MOV	a+0(FP),R13
 001046a8: b98033ec	(1334)	MOVW	b-16(SP),R12
 001046ac: f9402beb	(1334)	MOV	na+8(FP),R11
 001046b0: b98037e9	(1334)	MOVW	d-12(SP),R9
 001046b4: 6b1f001f	(1334)	CMPW	$0,R0,
 001046b8: 5400004a	(1334)	BGE	,1046c0(BRANCH)
 001046bc: 51000529	(1335)	SUBW	$1,R9,R9
 001046c0: b9800165	(1336)	MOVW	0(R11),R5
 001046c4: 8b0d00aa	(1336)	ADD	R13,R5,R10
 001046c8: b98001c4	(1337)	MOVW	0(R14),R4
 001046cc: 4b0c0082	(1337)	SUBW	R12,R4,R2
 001046d0: b90001c2	(1337)	MOVW	R2,0(R14)
 001046d4: b98001e1	(1338)	MOVW	0(R15),R1
 001046d8: 0b090024	(1338)	ADDW	R9,R1,R4
 001046dc: b90001e4	(1338)	MOVW	R4,0(R15)
 001046e0: b9800163	(1339)	MOVW	0(R11),R3
 001046e4: 0b090061	(1339)	ADDW	R9,R3,R1
 001046e8: b9000161	(1339)	MOVW	R1,0(R11)
 001046ec: aa0d03e0	(1340)	MOV	R13,R0
 001046f0: 8b0a0122	(1340)	ADD	R10,R9,R2
 001046f4: f9000be2	(1340)	MOV	R2,16(R31)
 001046f8: f9000fea	(1340)	MOV	R10,24(R31)
 001046fc: b90023ec	(1340)	MOVW	R12,32(R31)
 00104700: 97ffffaa	(1340)	BL	,mulby+0x1045a8(BRANCH)
 00104704: f84407fe	(1340)	MOV	(R31)64!,R30
 00104708: d65f03c0	(1340)	RET	,0(R30)

 0010470c:		(1344)	TEXT	xcmp<>+0(SB),R0,$24
 0010470c: f81e0ffe	(1344)	MOV	R30,-32(R31)!
 00104710: f9401bec	(1344)	MOV	b+8(FP),R12
 00104714: aa0003ea	(1344)	MOV	R0,R10
 00104718: aa0c03eb	(1348)	MOV	R12,R11
 0010471c: 9100058c	(1348)	ADD	$1,R12,R12
 00104720: f9001bec	(1348)	MOV	R12,b+8(FP)
 00104724: 3980016b	(1348)	MOVB	0(R11),R11
 00104728: b9001feb	(1348)	MOVW	R11,c1-4(SP)
 0010472c: 6b1f017f	(1348)	CMPW	$0,R11,
 00104730: 54000300	(1348)	BEQ	,104790(BRANCH)
 00104734: aa0a03e9	(1349)	MOV	R10,R9
 00104738: 9100054a	(1349)	ADD	$1,R10,R10
 0010473c: f90017ea	(1349)	MOV	R10,a+0(FP)
 00104740: 39800129	(1349)	MOVB	0(R9),R9
 00104744: 2a0903e3	(1350)	MOVWU	R9,R3
 00104748: d3401c63	(1350)	MOVBU	R3,R3
 0010474c: 91260382	(1350)	MOV	$_ctype+0(SB),R2
 00104750: 8b020063	(1350)	ADD	R2,R3
 00104754: 39400063	(1350)	MOVBU	0(R3),R3
 00104758: 12000063	(1350)	ANDW	$1,R3
 0010475c: 6b1f007f	(1350)	CMPW	$0,R3,
 00104760: 540000e0	(1350)	BEQ	,10477c(BRANCH)
 00104764: 93407d20	(1351)	MOVW	R9,R0
 00104768: 97fffc57	(1351)	BL	,tolower+0x1038c4(BRANCH)
 0010476c: f9401bec	(1351)	MOV	b+8(FP),R12
 00104770: b9801feb	(1351)	MOVW	c1-4(SP),R11
 00104774: f94017ea	(1351)	MOV	a+0(FP),R10
 00104778: 93407c09	(1351)	MOVW	R0,R9
 0010477c: 6b09017f	(1352)	CMPW	R9,R11,
 00104780: 54fffcc0	(1352)	BEQ	,104718(BRANCH)
 00104784: 98005440	(1353)	MOVW	$1,R0
 00104788: f84207fe	(1353)	MOV	(R31)32!,R30
 0010478c: d65f03c0	(1353)	RET	,0(R30)
 00104790: 2a1f03e0	(1355)	MOVW	$0,R0
 00104794: f84207fe	(1355)	MOV	(R31)32!,R30
 00104798: d65f03c0	(1355)	RET	,0(R30)

 0010479c:		(813)	TEXT	strcpy+0(SB),R0,$40
 0010479c: f81d0ffe	(813)	MOV	R30,-48(R31)!
 001047a0: f94023ea	(813)	MOV	s2+8(FP),R10
 001047a4: aa0003e9	(813)	MOV	R0,R9
 001047a8: f90017e0	(817)	MOV	R0,os1-8(SP)
 001047ac: aa0903e0	(818)	MOV	R9,R0
 001047b0: f9001fe9	(818)	MOV	R9,s1+0(FP)
 001047b4: f90023ea	(818)	MOV	R10,s2+8(FP)
 001047b8: f9000bea	(818)	MOV	R10,16(R31)
 001047bc: b9001bff	(818)	MOVW	$0,24(R31)
 001047c0: 5284e205	(818)	MOVWU	$10000,R5
 001047c4: b90023e5	(818)	MOVW	R5,32(R31)
 001047c8: 9400013d	(818)	BL	,memccpy+0x104cbc(BRANCH)
 001047cc: f9401fe9	(818)	MOV	s1+0(FP),R9
 001047d0: f94023ea	(818)	MOV	s2+8(FP),R10
 001047d4: eb1f001f	(818)	CMP	$0,R0,
 001047d8: 540000c1	(818)	BNE	,1047f0(BRANCH)
 001047dc: 18005511 8b110129(819)	ADD	$10000,R9,R9
 001047e4: 180054d1 8b11014a(820)	ADD	$10000,R10,R10
 001047ec: 17fffff0	(818)	B	,1047ac(BRANCH)
 001047f0: f94017e0	(822)	MOV	os1-8(SP),R0
 001047f4: f84307fe	(822)	MOV	(R31)48!,R30
 001047f8: d65f03c0	(822)	RET	,0(R30)

 001047fc:		(841)	TEXT	pow10+0(SB),R0,$24
 001047fc: f81e0ffe	(841)	MOV	R30,-32(R31)!
 00104800: 93407c09	(841)	MOVW	R0,R9
 00104804: 6b1f001f	(845)	CMPW	$0,R0,
 00104808: 540003aa	(845)	BGE	,10487c(BRANCH)
 0010480c: 4b0903e9	(846)	NEGW	R9,R9
 00104810: 7102813f	(847)	CMPW	$160,R9,
 00104814: 5400012a	(847)	BGE	,104838(BRANCH)
 00104818: d37df121	(848)	LSL	$3,R9,R1
 0010481c: 91120382	(848)	MOV	$tab<>+0(SB),R2
 00104820: 8b020021	(848)	ADD	R2,R1
 00104824: fd400020	(848)	FMOVD	0(R1),F0
 00104828: fd404b82	(848)	FMOVD	$0.3ff00000+0(SB),F2
 0010482c: 1e601840	(848)	FDIVD	F0,F2,F0
 00104830: f84207fe	(848)	MOV	(R31)32!,R30
 00104834: d65f03c0	(848)	RET	,0(R30)
 00104838: 93407d24	(849)	MOVW	R9,R4
 0010483c: 6b1f013f	(849)	CMPW	$0,R9,
 00104840: 5400004a	(849)	BGE	,104848(BRANCH)
 00104844: 11000484	(849)	ADDW	$1,R4
 00104848: 13017c84	(849)	ASRW	$1,R4,R4
 0010484c: b9001fe4	(850)	MOVW	R4,m-4(SP)
 00104850: 4b040120	(850)	SUBW	R4,R9,R0
 00104854: 97ffffea	(850)	BL	,pow10+0x1047fc(BRANCH)
 00104858: b9801fe0	(850)	MOVW	m-4(SP),R0
 0010485c: fd000be0	(850)	FMOVD	F0,.safe-16(SP)
 00104860: 97ffffe7	(850)	BL	,pow10+0x1047fc(BRANCH)
 00104864: fd400be4	(850)	FMOVD	.safe-16(SP),F4
 00104868: 1e640800	(850)	FMULD	F4,F0
 0010486c: fd404b81	(850)	FMOVD	$0.3ff00000+0(SB),F1
 00104870: 1e601820	(850)	FDIVD	F0,F1,F0
 00104874: f84207fe	(850)	MOV	(R31)32!,R30
 00104878: d65f03c0	(850)	RET	,0(R30)
 0010487c: 7102801f	(852)	CMPW	$160,R0,
 00104880: 540000ea	(852)	BGE	,10489c(BRANCH)
 00104884: d37df125	(853)	LSL	$3,R9,R5
 00104888: 91120386	(853)	MOV	$tab<>+0(SB),R6
 0010488c: 8b0600a5	(853)	ADD	R6,R5
 00104890: fd4000a0	(853)	FMOVD	0(R5),F0
 00104894: f84207fe	(853)	MOV	(R31)32!,R30
 00104898: d65f03c0	(853)	RET	,0(R30)
 0010489c: 93407c02	(854)	MOVW	R0,R2
 001048a0: 6b1f001f	(854)	CMPW	$0,R0,
 001048a4: 5400004a	(854)	BGE	,1048ac(BRANCH)
 001048a8: 11000442	(854)	ADDW	$1,R2
 001048ac: 13017c4a	(854)	ASRW	$1,R2,R10
 001048b0: b9001fea	(855)	MOVW	R10,m-4(SP)
 001048b4: 4b0a0120	(855)	SUBW	R10,R9,R0
 001048b8: 97ffffd1	(855)	BL	,pow10+0x1047fc(BRANCH)
 001048bc: b9801fe0	(855)	MOVW	m-4(SP),R0
 001048c0: fd000be0	(855)	FMOVD	F0,.safe-16(SP)
 001048c4: 97ffffce	(855)	BL	,pow10+0x1047fc(BRANCH)
 001048c8: fd400be1	(855)	FMOVD	.safe-16(SP),F1
 001048cc: 1e610800	(855)	FMULD	F1,F0
 001048d0: f84207fe	(855)	MOV	(R31)32!,R30
 001048d4: d65f03c0	(855)	RET	,0(R30)

 001048d8:		(816)	TEXT	NaN+0(SB),R0,$8
 001048d8: d10043ff	(816)	SUB	$16,R31
 001048dc: 52affe09	(816)	MOVW	$2146435072,R9
 001048e0: 2a0903e1	(820)	MOVWU	R9,R1
 001048e4: b9000fe1	(820)	MOVWU	R1,a-4(SP)
 001048e8: 18004922	(821)	MOVWU	$1,R2
 001048ec: b9000be2	(821)	MOVWU	R2,a-8(SP)
 001048f0: fd4007e0	(822)	FMOVD	a-8(SP),F0
 001048f4: 910043ff	(822)	ADD	$16,R31
 001048f8: d65f03c0	(822)	RET	,0(R30)

 001048fc:		(826)	TEXT	isNaN+0(SB),R0,$24
 001048fc: f81e0ffe	(826)	MOV	R30,-32(R31)!
 00104900: fd4017e7	(826)	FMOVD	d+0(FP),F7
 00104904: fd000fe7	(830)	FMOVD	F7,a-8(SP)
 00104908: b9401fe1	(831)	MOVWU	a-4(SP),R1
 0010490c: 120c2821	(831)	ANDW	$2146435072,R1
 00104910: 18004b91 6b11003f(831)	CMPW	$2146435072,R1,
 00104918: 54000080	(831)	BEQ	,104928(BRANCH)
 0010491c: 2a1f03e0	(832)	MOVW	$0,R0
 00104920: f84207fe	(832)	MOV	(R31)32!,R30
 00104924: d65f03c0	(832)	RET	,0(R30)
 00104928: fd0007e7	(833)	FMOVD	F7,8(R31)
 0010492c: b90013ff	(833)	MOVW	$0,16(R31)
 00104930: 94000016	(833)	BL	,isInf+0x104988(BRANCH)
 00104934: 6b1f001f	(833)	CMPW	$0,R0,
 00104938: 54000081	(833)	BNE	,104948(BRANCH)
 0010493c: 98004680	(833)	MOVW	$1,R0
 00104940: f84207fe	(833)	MOV	(R31)32!,R30
 00104944: d65f03c0	(833)	RET	,0(R30)
 00104948: 2a1f03e0	(833)	MOVW	$0,R0
 0010494c: f84207fe	(833)	MOV	(R31)32!,R30
 00104950: d65f03c0	(833)	RET	,0(R30)

 00104954:		(837)	TEXT	Inf+0(SB),R0,$8
 00104954: d10043ff	(837)	SUB	$16,R31
 00104958: 52affe0a	(837)	MOVW	$2146435072,R10
 0010495c: 2a0a03e3	(841)	MOVWU	R10,R3
 00104960: b9000fe3	(841)	MOVWU	R3,a-4(SP)
 00104964: b9000bff	(842)	MOVWU	$0,a-8(SP)
 00104968: 6b1f001f	(843)	CMPW	$0,R0,
 0010496c: 5400008a	(843)	BGE	,10497c(BRANCH)
 00104970: b9400fe1	(844)	MOVWU	a-4(SP),R1
 00104974: 32010021	(844)	ORRW	$2147483648,R1
 00104978: b9000fe1	(844)	MOVWU	R1,a-4(SP)
 0010497c: fd4007e0	(845)	FMOVD	a-8(SP),F0
 00104980: 910043ff	(845)	ADD	$16,R31
 00104984: d65f03c0	(845)	RET	,0(R30)

 00104988:		(849)	TEXT	isInf+0(SB),R0,$8
 00104988: d10043ff	(849)	SUB	$16,R31
 0010498c: fd400fe7	(849)	FMOVD	d+0(FP),F7
 00104990: b98023e9	(849)	MOVW	sign+8(FP),R9
 00104994: fd0007e7	(853)	FMOVD	F7,a-8(SP)
 00104998: b9400be2	(854)	MOVWU	a-8(SP),R2
 0010499c: 6b1f005f	(854)	CMPW	$0,R2,
 001049a0: 54000080	(854)	BEQ	,1049b0(BRANCH)
 001049a4: 2a1f03e0	(855)	MOVW	$0,R0
 001049a8: 910043ff	(855)	ADD	$16,R31
 001049ac: d65f03c0	(855)	RET	,0(R30)
 001049b0: b9400fe4	(856)	MOVWU	a-4(SP),R4
 001049b4: 18004671 6b11009f(856)	CMPW	$2146435072,R4,
 001049bc: 54000161	(856)	BNE	,1049e8(BRANCH)
 001049c0: 6b1f013f	(857)	CMPW	$0,R9,
 001049c4: 540000ab	(857)	BLT	,1049d8(BRANCH)
 001049c8: 98004221	(857)	MOVW	$1,R1
 001049cc: 93407c20	(857)	MOVW	R1,R0
 001049d0: 910043ff	(857)	ADD	$16,R31
 001049d4: d65f03c0	(857)	RET	,0(R30)
 001049d8: 2a1f03e1	(857)	MOVW	$0,R1
 001049dc: 93407c20	(857)	MOVW	R1,R0
 001049e0: 910043ff	(857)	ADD	$16,R31
 001049e4: d65f03c0	(857)	RET	,0(R30)
 001049e8: b9400fe4	(858)	MOVWU	a-4(SP),R4
 001049ec: 180044d1 6b11009f(858)	CMPW	$4293918720,R4,
 001049f4: 54000161	(858)	BNE	,104a20(BRANCH)
 001049f8: 6b1f013f	(859)	CMPW	$0,R9,
 001049fc: 540000ac	(859)	BGT	,104a10(BRANCH)
 00104a00: 98004061	(859)	MOVW	$1,R1
 00104a04: 93407c20	(859)	MOVW	R1,R0
 00104a08: 910043ff	(859)	ADD	$16,R31
 00104a0c: d65f03c0	(859)	RET	,0(R30)
 00104a10: 2a1f03e1	(859)	MOVW	$0,R1
 00104a14: 93407c20	(859)	MOVW	R1,R0
 00104a18: 910043ff	(859)	ADD	$16,R31
 00104a1c: d65f03c0	(859)	RET	,0(R30)
 00104a20: 2a1f03e0	(860)	MOVW	$0,R0
 00104a24: 910043ff	(860)	ADD	$16,R31
 00104a28: d65f03c0	(860)	RET	,0(R30)

 00104a2c:		(812)	TEXT	umuldiv+0(SB),R0,$8
 00104a2c: f81f0ffe	(812)	MOV	R30,-16(R31)!
 00104a30: b94023eb	(812)	MOVWU	b+8(FP),R11
 00104a34: b9402bea	(812)	MOVWU	c+16(FP),R10
 00104a38: 2a0003e5	(816)	MOVWU	R0,R5
 00104a3c: 1e6300a2	(816)	UCVTFWD	R5,F2
 00104a40: 2a0b03e4	(816)	MOVWU	R11,R4
 00104a44: 1e630080	(816)	UCVTFWD	R4,F0
 00104a48: 1e600841	(816)	FMULD	F0,F2,F1
 00104a4c: 2a0a03e3	(816)	MOVWU	R10,R3
 00104a50: 1e630064	(816)	UCVTFWD	R3,F4
 00104a54: 1e641827	(816)	FDIVD	F4,F1,F7
 00104a58: fd0007e7	(817)	FMOVD	F7,d-8(SP)
 00104a5c: fd410383	(817)	FMOVD	$0.41f00000+0(SB),F3
 00104a60: 1e6320e0	(817)	FCMPD	F3,F7,
 00104a64: 5400006b	(817)	BLT	,104a70(BRANCH)
 00104a68: 940001c2	(818)	BL	,abort+0x105170(BRANCH)
 00104a6c: fd4007e7	(818)	FMOVD	d-8(SP),F7
 00104a70: 1e7900e3	(819)	FCVTZUDW	F7,R3
 00104a74: 2a0303e5	(819)	MOVWU	R3,R5
 00104a78: 2a0503e0	(819)	MOVWU	R5,R0
 00104a7c: f84107fe	(819)	MOV	(R31)16!,R30
 00104a80: d65f03c0	(819)	RET	,0(R30)

 00104a84:		(823)	TEXT	muldiv+0(SB),R0,$40
 00104a84: f81d0ffe	(823)	MOV	R30,-48(R31)!
 00104a88: b98043ec	(823)	MOVW	b+8(FP),R12
 00104a8c: b9804beb	(823)	MOVW	c+16(FP),R11
 00104a90: 93407c09	(823)	MOVW	R0,R9
 00104a94: 2a1f03ea	(828)	MOVW	$0,R10
 00104a98: b9002fea	(828)	MOVW	R10,s-4(SP)
 00104a9c: 6b1f001f	(829)	CMPW	$0,R0,
 00104aa0: 540000ea	(829)	BGE	,104abc(BRANCH)
 00104aa4: 6b1f015f	(830)	CMPW	$0,R10,
 00104aa8: 540004c1	(830)	BNE	,104b40(BRANCH)
 00104aac: 98003b02	(830)	MOVW	$1,R2
 00104ab0: 93407c4a	(830)	MOVW	R2,R10
 00104ab4: b9002fe2	(830)	MOVW	R2,s-4(SP)
 00104ab8: 4b0903e9	(831)	NEGW	R9,R9
 00104abc: 6b1f019f	(833)	CMPW	$0,R12,
 00104ac0: 540000ea	(833)	BGE	,104adc(BRANCH)
 00104ac4: 6b1f015f	(834)	CMPW	$0,R10,
 00104ac8: 54000381	(834)	BNE	,104b38(BRANCH)
 00104acc: 98003a02	(834)	MOVW	$1,R2
 00104ad0: 93407c4a	(834)	MOVW	R2,R10
 00104ad4: b9002fe2	(834)	MOVW	R2,s-4(SP)
 00104ad8: 4b0c03ec	(835)	NEGW	R12,R12
 00104adc: 6b1f017f	(837)	CMPW	$0,R11,
 00104ae0: 540000ca	(837)	BGE	,104af8(BRANCH)
 00104ae4: 6b1f015f	(838)	CMPW	$0,R10,
 00104ae8: 54000241	(838)	BNE	,104b30(BRANCH)
 00104aec: 98003902	(838)	MOVW	$1,R2
 00104af0: b9002fe2	(838)	MOVW	R2,s-4(SP)
 00104af4: 4b0b03eb	(839)	NEGW	R11,R11
 00104af8: 2a0903e0	(841)	MOVWU	R9,R0
 00104afc: 2a0c03e1	(841)	MOVWU	R12,R1
 00104b00: b90013e1	(841)	MOVW	R1,16(R31)
 00104b04: 2a0b03e4	(841)	MOVWU	R11,R4
 00104b08: b9001be4	(841)	MOVW	R4,24(R31)
 00104b0c: 97ffffc8	(841)	BL	,umuldiv+0x104a2c(BRANCH)
 00104b10: b9802fea	(841)	MOVW	s-4(SP),R10
 00104b14: 93407c09	(841)	MOVW	R0,R9
 00104b18: 6b1f015f	(842)	CMPW	$0,R10,
 00104b1c: 54000040	(842)	BEQ	,104b24(BRANCH)
 00104b20: 4b0903e9	(843)	NEGW	R9,R9
 00104b24: 93407d20	(844)	MOVW	R9,R0
 00104b28: f84307fe	(844)	MOV	(R31)48!,R30
 00104b2c: d65f03c0	(844)	RET	,0(R30)
 00104b30: 2a1f03e2	(838)	MOVW	$0,R2
 00104b34: 17ffffef	(838)	B	,104af0(BRANCH)
 00104b38: 2a1f03e2	(834)	MOVW	$0,R2
 00104b3c: 17ffffe5	(834)	B	,104ad0(BRANCH)
 00104b40: 93407d42	(830)	MOVW	R10,R2
 00104b44: 17ffffdb	(830)	B	,104ab0(BRANCH)

 00104b48:		(812)	TEXT	memmove+0(SB),R0,$24
 00104b48: f81e0ffe	(812)	MOV	R30,-32(R31)!
 00104b4c: b9403be9	(812)	MOVWU	n+16(FP),R9
 00104b50: aa0003ec	(812)	MOV	R0,R12
 00104b54: f90017e0	(812)	MOV	R0,a1+0(FP)
 00104b58: 6b1f013f	(816)	CMPW	$0,R9,
 00104b5c: 5400008a	(816)	BGE	,104b6c(BRANCH)
 00104b60: 94000184	(817)	BL	,abort+0x105170(BRANCH)
 00104b64: f94017ec	(817)	MOV	a1+0(FP),R12
 00104b68: b9403be9	(817)	MOVWU	n+16(FP),R9
 00104b6c: aa0c03eb	(818)	MOV	R12,R11
 00104b70: f9401bea	(819)	MOV	a2+8(FP),R10
 00104b74: eb0c015f	(820)	CMP	R12,R10,
 00104b78: 540000a2	(820)	BHS	,104b8c(BRANCH)
 00104b7c: 2a0903e2	(820)	MOVWU	R9,R2
 00104b80: 8b0a0042	(820)	ADD	R10,R2
 00104b84: eb0b005f	(820)	CMP	R11,R2,
 00104b88: 54000208	(820)	BHI	,104bc8(BRANCH)
 00104b8c: 2a0903e1	(822)	MOVWU	R9,R1
 00104b90: 6b1f003f	(822)	CMPW	$0,R1,
 00104b94: 54000149	(822)	BLS	,104bbc(BRANCH)
 00104b98: aa0b03e3	(823)	MOV	R11,R3
 00104b9c: 9100056b	(823)	ADD	$1,R11,R11
 00104ba0: aa0a03e4	(823)	MOV	R10,R4
 00104ba4: 9100054a	(823)	ADD	$1,R10,R10
 00104ba8: 39800084	(823)	MOVB	0(R4),R4
 00104bac: 39000064	(823)	MOVB	R4,0(R3)
 00104bb0: 2a0903e1	(824)	MOVWU	R9,R1
 00104bb4: 51000429	(824)	SUBW	$1,R1,R9
 00104bb8: 17fffff5	(822)	B	,104b8c(BRANCH)
 00104bbc: aa0c03e0	(826)	MOV	R12,R0
 00104bc0: f84207fe	(826)	MOV	(R31)32!,R30
 00104bc4: d65f03c0	(826)	RET	,0(R30)
 00104bc8: 2a0903e5	(829)	MOVWU	R9,R5
 00104bcc: 8b05016b	(829)	ADD	R5,R11,R11
 00104bd0: 2a0903e2	(830)	MOVWU	R9,R2
 00104bd4: 8b02014a	(830)	ADD	R2,R10,R10
 00104bd8: 2a0903e4	(831)	MOVWU	R9,R4
 00104bdc: 6b1f009f	(831)	CMPW	$0,R4,
 00104be0: 54000109	(831)	BLS	,104c00(BRANCH)
 00104be4: d100056b	(832)	SUB	$1,R11,R11
 00104be8: d100054a	(832)	SUB	$1,R10,R10
 00104bec: 39800145	(832)	MOVB	0(R10),R5
 00104bf0: 39000165	(832)	MOVB	R5,0(R11)
 00104bf4: 2a0903e2	(833)	MOVWU	R9,R2
 00104bf8: 51000449	(833)	SUBW	$1,R2,R9
 00104bfc: 17fffff7	(831)	B	,104bd8(BRANCH)
 00104c00: aa0c03e0	(835)	MOV	R12,R0
 00104c04: f84207fe	(835)	MOV	(R31)32!,R30
 00104c08: d65f03c0	(835)	RET	,0(R30)

 00104c0c:		(839)	TEXT	memcpy+0(SB),R0,$24
 00104c0c: f81e0ffe	(839)	MOV	R30,-32(R31)!
 00104c10: f9401beb	(839)	MOV	a2+8(FP),R11
 00104c14: b9403bea	(839)	MOVWU	n+16(FP),R10
 00104c18: f9000beb	(841)	MOV	R11,16(R31)
 00104c1c: 2a0a03e1	(841)	MOVWU	R10,R1
 00104c20: b9001be1	(841)	MOVW	R1,24(R31)
 00104c24: 97ffffc9	(841)	BL	,memmove+0x104b48(BRANCH)
 00104c28: f84207fe	(841)	MOV	(R31)32!,R30
 00104c2c: d65f03c0	(841)	RET	,0(R30)

 00104c30:		(812)	TEXT	memcmp+0(SB),R0,$24
 00104c30: d10083ff	(812)	SUB	$32,R31
 00104c34: f9401bec	(812)	MOV	a2+8(FP),R12
 00104c38: b9403be9	(812)	MOVWU	n+16(FP),R9
 00104c3c: aa0003ed	(817)	MOV	R0,R13
 00104c40: 2a0903e1	(819)	MOVWU	R9,R1
 00104c44: 6b1f003f	(819)	CMPW	$0,R1,
 00104c48: 54000349	(819)	BLS	,104cb0(BRANCH)
 00104c4c: aa0d03e3	(820)	MOV	R13,R3
 00104c50: 910005ad	(820)	ADD	$1,R13,R13
 00104c54: 39400063	(820)	MOVBU	0(R3),R3
 00104c58: 2a0303eb	(820)	MOVWU	R3,R11
 00104c5c: aa0c03e3	(821)	MOV	R12,R3
 00104c60: 9100058c	(821)	ADD	$1,R12,R12
 00104c64: 39400063	(821)	MOVBU	0(R3),R3
 00104c68: 2a0303ea	(821)	MOVWU	R3,R10
 00104c6c: 2a0b03e3	(822)	MOVWU	R11,R3
 00104c70: 2a0a03e5	(822)	MOVWU	R10,R5
 00104c74: 6b05007f	(822)	CMPW	R5,R3,
 00104c78: 54000160	(822)	BEQ	,104ca4(BRANCH)
 00104c7c: 2a0b03e2	(823)	MOVWU	R11,R2
 00104c80: 2a0a03e4	(823)	MOVWU	R10,R4
 00104c84: 6b04005f	(823)	CMPW	R4,R2,
 00104c88: 54000089	(823)	BLS	,104c98(BRANCH)
 00104c8c: 98002c00	(824)	MOVW	$1,R0
 00104c90: 910083ff	(824)	ADD	$32,R31
 00104c94: d65f03c0	(824)	RET	,0(R30)
 00104c98: 12800000	(825)	MOVW	$-1,R0
 00104c9c: 910083ff	(825)	ADD	$32,R31
 00104ca0: d65f03c0	(825)	RET	,0(R30)
 00104ca4: 2a0903e1	(827)	MOVWU	R9,R1
 00104ca8: 51000429	(827)	SUBW	$1,R1,R9
 00104cac: 17ffffe5	(819)	B	,104c40(BRANCH)
 00104cb0: 2a1f03e0	(829)	MOVW	$0,R0
 00104cb4: 910083ff	(829)	ADD	$32,R31
 00104cb8: d65f03c0	(829)	RET	,0(R30)

 00104cbc:		(812)	TEXT	memccpy+0(SB),R0,$24
 00104cbc: d10083ff	(812)	SUB	$32,R31
 00104cc0: f9401beb	(812)	MOV	a2+8(FP),R11
 00104cc4: b9803bec	(812)	MOVW	c+16(FP),R12
 00104cc8: b94043e9	(812)	MOVWU	n+24(FP),R9
 00104ccc: aa0003ea	(816)	MOV	R0,R10
 00104cd0: 12001d8c	(818)	ANDW	$255,R12,R12
 00104cd4: 2a0903e4	(819)	MOVWU	R9,R4
 00104cd8: 6b1f009f	(819)	CMPW	$0,R4,
 00104cdc: 54000229	(819)	BLS	,104d20(BRANCH)
 00104ce0: aa0a03e3	(820)	MOV	R10,R3
 00104ce4: 9100054a	(820)	ADD	$1,R10,R10
 00104ce8: aa0b03e1	(820)	MOV	R11,R1
 00104cec: 9100056b	(820)	ADD	$1,R11,R11
 00104cf0: 39400021	(820)	MOVBU	0(R1),R1
 00104cf4: 39000061	(820)	MOVBU	R1,0(R3)
 00104cf8: d3401c21	(820)	MOVBU	R1,R1
 00104cfc: 2a0c03e2	(820)	MOVWU	R12,R2
 00104d00: 6b02003f	(820)	CMPW	R2,R1,
 00104d04: 54000081	(820)	BNE	,104d14(BRANCH)
 00104d08: aa0a03e0	(821)	MOV	R10,R0
 00104d0c: 910083ff	(821)	ADD	$32,R31
 00104d10: d65f03c0	(821)	RET	,0(R30)
 00104d14: 2a0903e5	(822)	MOVWU	R9,R5
 00104d18: 510004a9	(822)	SUBW	$1,R5,R9
 00104d1c: 17ffffee	(819)	B	,104cd4(BRANCH)
 00104d20: d2800000	(824)	MOV	$0,R0
 00104d24: 910083ff	(824)	ADD	$32,R31
 00104d28: d65f03c0	(824)	RET	,0(R30)

 00104d2c:		(822)	TEXT	frexp+0(SB),R0,$40
 00104d2c: f81d0ffe	(822)	MOV	R30,-48(R31)!
 00104d30: f94023e9	(822)	MOV	ep+8(FP),R9
 00104d34: fd401fe7	(822)	FMOVD	d+0(FP),F7
 00104d38: b900013f	(826)	MOVW	$0,0(R9)
 00104d3c: fd0007e7	(828)	FMOVD	F7,8(R31)
 00104d40: 97fffeef	(828)	BL	,isNaN+0x1048fc(BRANCH)
 00104d44: fd401fe7	(828)	FMOVD	d+0(FP),F7
 00104d48: 6b1f001f	(828)	CMPW	$0,R0,
 00104d4c: 540000e1	(828)	BNE	,104d68(BRANCH)
 00104d50: fd0007e7	(828)	FMOVD	F7,8(R31)
 00104d54: b90013ff	(828)	MOVW	$0,16(R31)
 00104d58: 97ffff0c	(828)	BL	,isInf+0x104988(BRANCH)
 00104d5c: fd401fe7	(828)	FMOVD	d+0(FP),F7
 00104d60: 6b1f001f	(828)	CMPW	$0,R0,
 00104d64: 54000080	(828)	BEQ	,104d74(BRANCH)
 00104d68: 1e6040e0	(829)	FMOVD	F7,F0
 00104d6c: f84307fe	(829)	MOV	(R31)48!,R30
 00104d70: d65f03c0	(829)	RET	,0(R30)
 00104d74: fd400382	(828)	FMOVD	$0.0+0(SB),F2
 00104d78: 1e6220e0	(828)	FCMPD	F2,F7,
 00104d7c: 54ffff60	(828)	BEQ	,104d68(BRANCH)
 00104d80: fd0017e7	(830)	FMOVD	F7,x-8(SP)
 00104d84: fd0007e7	(831)	FMOVD	F7,8(R31)
 00104d88: 940000d7	(831)	BL	,fabs+0x1050e4(BRANCH)
 00104d8c: fd401fe7	(831)	FMOVD	d+0(FP),F7
 00104d90: f94023e9	(831)	MOV	ep+8(FP),R9
 00104d94: fd0013e0	(831)	FMOVD	F0,a-16(SP)
 00104d98: b94027e1	(832)	MOVWU	a-12(SP),R1
 00104d9c: 53147c21	(832)	LSRW	$20,R1
 00104da0: 6b1f003f	(832)	CMPW	$0,R1,
 00104da4: 540000c1	(832)	BNE	,104dbc(BRANCH)
 00104da8: fd40ef82	(833)	FMOVD	$0.43300000+0(SB),F2
 00104dac: 1e670842	(833)	FMULD	F7,F2
 00104db0: fd0017e2	(833)	FMOVD	F2,x-8(SP)
 00104db4: 12800665	(834)	MOVW	$-52,R5
 00104db8: b9000125	(834)	MOVW	R5,0(R9)
 00104dbc: b9402fe3	(836)	MOVWU	x-4(SP),R3
 00104dc0: 53147c63	(836)	LSRW	$20,R3
 00104dc4: 12002863	(836)	ANDW	$2047,R3
 00104dc8: 510ff863	(836)	SUBW	$1022,R3
 00104dcc: b9800125	(836)	MOVW	0(R9),R5
 00104dd0: 0b0300a3	(836)	ADDW	R3,R5,R3
 00104dd4: b9000123	(836)	MOVW	R3,0(R9)
 00104dd8: b9402fe3	(837)	MOVWU	x-4(SP),R3
 00104ddc: 12015063	(837)	ANDW	$2148532223,R3
 00104de0: b9002fe3	(837)	MOVWU	R3,x-4(SP)
 00104de4: b9402fe1	(838)	MOVWU	x-4(SP),R1
 00104de8: 320b2021	(838)	ORRW	$1071644672,R1
 00104dec: b9002fe1	(838)	MOVWU	R1,x-4(SP)
 00104df0: fd4017e0	(839)	FMOVD	x-8(SP),F0
 00104df4: f84307fe	(839)	MOV	(R31)48!,R30
 00104df8: d65f03c0	(839)	RET	,0(R30)

 00104dfc:		(843)	TEXT	ldexp+0(SB),R0,$40
 00104dfc: f81d0ffe	(843)	MOV	R30,-48(R31)!
 00104e00: fd401fe7	(843)	FMOVD	d+0(FP),F7
 00104e04: b98043e9	(843)	MOVW	deltae+8(FP),R9
 00104e08: fd400381	(849)	FMOVD	$0.0+0(SB),F1
 00104e0c: 1e6120e0	(849)	FCMPD	F1,F7,
 00104e10: 54000081	(849)	BNE	,104e20(BRANCH)
 00104e14: fd400380	(850)	FMOVD	$0.0+0(SB),F0
 00104e18: f84307fe	(850)	MOV	(R31)48!,R30
 00104e1c: d65f03c0	(850)	RET	,0(R30)
 00104e20: fd0013e7	(851)	FMOVD	F7,x-16(SP)
 00104e24: b94027e5	(852)	MOVWU	x-12(SP),R5
 00104e28: 53147ca5	(852)	LSRW	$20,R5
 00104e2c: 120028ab	(852)	ANDW	$2047,R5,R11
 00104e30: 6b1f013f	(853)	CMPW	$0,R9,
 00104e34: 540009ea	(853)	BGE	,104f70(BRANCH)
 00104e38: 0b090165	(853)	ADDW	R9,R11,R5
 00104e3c: 710004bf	(853)	CMPW	$1,R5,
 00104e40: 5400098a	(853)	BGE	,104f70(BRANCH)
 00104e44: 4b0903ea	(861)	NEGW	R9,R10
 00104e48: 7100057f	(863)	CMPW	$1,R11,
 00104e4c: 5400008d	(863)	BLE	,104e5c(BRANCH)
 00104e50: 51000561	(864)	SUBW	$1,R11,R1
 00104e54: 4b01014a	(864)	SUBW	R1,R10,R10
 00104e58: 98001dab	(865)	MOVW	$1,R11
 00104e5c: 6b1f015f	(867)	CMPW	$0,R10,
 00104e60: 5400006d	(867)	BLE	,104e6c(BRANCH)
 00104e64: 7100057f	(867)	CMPW	$1,R11,
 00104e68: 54000560	(867)	BEQ	,104f14(BRANCH)
 00104e6c: 6b1f015f	(876)	CMPW	$0,R10,
 00104e70: 540003ed	(876)	BLE	,104eec(BRANCH)
 00104e74: 93407d49	(877)	MOVW	R10,R9
 00104e78: 7100515f	(878)	CMPW	$20,R10,
 00104e7c: 5400004d	(878)	BLE	,104e84(BRANCH)
 00104e80: 52800289	(879)	MOVW	$20,R9
 00104e84: b94023e2	(880)	MOVWU	x-16(SP),R2
 00104e88: 1ac92445	(880)	LSRW	R9,R2,R5
 00104e8c: b90023e5	(880)	MOVWU	R5,x-16(SP)
 00104e90: 98001be5	(881)	MOVW	$1,R5
 00104e94: 1ac920a5	(881)	LSLW	R9,R5,R5
 00104e98: 510004a5	(881)	SUBW	$1,R5
 00104e9c: b94027e1	(881)	MOVWU	x-12(SP),R1
 00104ea0: 0a050025	(881)	ANDW	R5,R1,R5
 00104ea4: 98001b63	(881)	MOVW	$32,R3
 00104ea8: 4b090063	(881)	SUBW	R9,R3,R3
 00104eac: 1ac320a5	(881)	LSLW	R3,R5
 00104eb0: b94023e2	(881)	MOVWU	x-16(SP),R2
 00104eb4: 2a050045	(881)	ORRW	R5,R2,R5
 00104eb8: b90023e5	(881)	MOVWU	R5,x-16(SP)
 00104ebc: b94027e5	(882)	MOVWU	x-12(SP),R5
 00104ec0: 12004ca5	(882)	ANDW	$1048575,R5
 00104ec4: b94027e3	(883)	MOVWU	x-12(SP),R3
 00104ec8: 120c2c63	(883)	ANDW	$4293918720,R3
 00104ecc: b90027e3	(883)	MOVWU	R3,x-12(SP)
 00104ed0: 2a0503e1	(884)	MOVWU	R5,R1
 00104ed4: 1ac92421	(884)	LSRW	R9,R1
 00104ed8: b94027e2	(884)	MOVWU	x-12(SP),R2
 00104edc: 2a010041	(884)	ORRW	R1,R2,R1
 00104ee0: b90027e1	(884)	MOVWU	R1,x-12(SP)
 00104ee4: 4b09014a	(885)	SUBW	R9,R10,R10
 00104ee8: 17ffffe1	(876)	B	,104e6c(BRANCH)
 00104eec: b94027e4	(888)	MOVWU	x-12(SP),R4
 00104ef0: 12015084	(888)	ANDW	$2148532223,R4
 00104ef4: b90027e4	(888)	MOVWU	R4,x-12(SP)
 00104ef8: 530c2d62	(889)	LSLW	$20,R11,R2
 00104efc: b94027e4	(889)	MOVWU	x-12(SP),R4
 00104f00: 2a020082	(889)	ORRW	R2,R4,R2
 00104f04: b90027e2	(889)	MOVWU	R2,x-12(SP)
 00104f08: fd4013e0	(890)	FMOVD	x-16(SP),F0
 00104f0c: f84307fe	(890)	MOV	(R31)48!,R30
 00104f10: d65f03c0	(890)	RET	,0(R30)
 00104f14: 5100054a	(868)	SUBW	$1,R10,R10
 00104f18: 2a1f03eb	(869)	MOVW	$0,R11
 00104f1c: b94023e4	(870)	MOVWU	x-16(SP),R4
 00104f20: 53017c84	(870)	LSRW	$1,R4
 00104f24: b90023e4	(870)	MOVWU	R4,x-16(SP)
 00104f28: b94027e2	(871)	MOVWU	x-12(SP),R2
 00104f2c: 12000042	(871)	ANDW	$1,R2
 00104f30: 53010042	(871)	LSLW	$31,R2
 00104f34: b94023e4	(871)	MOVWU	x-16(SP),R4
 00104f38: 2a020082	(871)	ORRW	R2,R4,R2
 00104f3c: b90023e2	(871)	MOVWU	R2,x-16(SP)
 00104f40: b94027e2	(872)	MOVWU	x-12(SP),R2
 00104f44: 12004c42	(872)	ANDW	$1048575,R2
 00104f48: b94027e5	(873)	MOVWU	x-12(SP),R5
 00104f4c: 120c2ca5	(873)	ANDW	$4293918720,R5
 00104f50: b90027e5	(873)	MOVWU	R5,x-12(SP)
 00104f54: 2a0203e3	(874)	MOVWU	R2,R3
 00104f58: 53017c63	(874)	LSRW	$1,R3
 00104f5c: 320d0063	(874)	ORRW	$524288,R3
 00104f60: b94027e5	(874)	MOVWU	x-12(SP),R5
 00104f64: 2a0300a3	(874)	ORRW	R3,R5,R3
 00104f68: b90027e3	(874)	MOVWU	R3,x-12(SP)
 00104f6c: 17ffffc0	(876)	B	,104e6c(BRANCH)
 00104f70: 0b09016b	(854)	ADDW	R9,R11,R11
 00104f74: 711ffd7f	(855)	CMPW	$2047,R11,
 00104f78: 54fffbab	(855)	BLT	,104eec(BRANCH)
 00104f7c: fd400383	(856)	FMOVD	$0.0+0(SB),F3
 00104f80: 1e6320e0	(856)	FCMPD	F3,F7,
 00104f84: 540000a5	(856)	BPL	,104f98(BRANCH)
 00104f88: 12800000	(857)	MOVW	$-1,R0
 00104f8c: 97fffe72	(857)	BL	,Inf+0x104954(BRANCH)
 00104f90: f84307fe	(857)	MOV	(R31)48!,R30
 00104f94: d65f03c0	(857)	RET	,0(R30)
 00104f98: 980013a0	(858)	MOVW	$1,R0
 00104f9c: 97fffe6e	(858)	BL	,Inf+0x104954(BRANCH)
 00104fa0: f84307fe	(858)	MOV	(R31)48!,R30
 00104fa4: d65f03c0	(858)	RET	,0(R30)

 00104fa8:		(894)	TEXT	modf+0(SB),R0,$40
 00104fa8: f81d0ffe	(894)	MOV	R30,-48(R31)!
 00104fac: 980016ec	(894)	MOVW	$2097151,R12
 00104fb0: 980016eb	(894)	MOVW	$2147483647,R11
 00104fb4: f94023ea	(894)	MOV	ip+8(FP),R10
 00104fb8: fd401fe7	(894)	FMOVD	d+0(FP),F7
 00104fbc: fd0017e7	(899)	FMOVD	F7,x-8(SP)
 00104fc0: b9402fe5	(900)	MOVWU	x-4(SP),R5
 00104fc4: 53147ca5	(900)	LSRW	$20,R5
 00104fc8: 120028a5	(900)	ANDW	$2047,R5
 00104fcc: 711ffcbf	(901)	CMPW	$2047,R5,
 00104fd0: 54000241	(901)	BNE	,105018(BRANCH)
 00104fd4: fd000147	(902)	FMOVD	F7,0(R10)
 00104fd8: b9402be4	(903)	MOVWU	x-8(SP),R4
 00104fdc: 6b1f009f	(903)	CMPW	$0,R4,
 00104fe0: 54000161	(903)	BNE	,10500c(BRANCH)
 00104fe4: b9402fe1	(903)	MOVWU	x-4(SP),R1
 00104fe8: 12004c21	(903)	ANDW	$1048575,R1
 00104fec: 6b1f003f	(903)	CMPW	$0,R1,
 00104ff0: 540000e1	(903)	BNE	,10500c(BRANCH)
 00104ff4: b9402fe4	(906)	MOVWU	x-4(SP),R4
 00104ff8: 12010084	(906)	ANDW	$2147483648,R4
 00104ffc: b9002fe4	(906)	MOVWU	R4,x-4(SP)
 00105000: fd4017e0	(907)	FMOVD	x-8(SP),F0
 00105004: f84307fe	(907)	MOV	(R31)48!,R30
 00105008: d65f03c0	(907)	RET	,0(R30)
 0010500c: 1e6040e0	(904)	FMOVD	F7,F0
 00105010: f84307fe	(904)	MOV	(R31)48!,R30
 00105014: d65f03c0	(904)	RET	,0(R30)
 00105018: fd404b84	(909)	FMOVD	$0.3ff00000+0(SB),F4
 0010501c: 1e6420e0	(909)	FCMPD	F4,F7,
 00105020: 54000325	(909)	BPL	,105084(BRANCH)
 00105024: fd400382	(910)	FMOVD	$0.0+0(SB),F2
 00105028: 1e6220e0	(910)	FCMPD	F2,F7,
 0010502c: 54000225	(910)	BPL	,105070(BRANCH)
 00105030: fd400383	(911)	FMOVD	$0.0+0(SB),F3
 00105034: 1e673863	(911)	FSUBD	F7,F3
 00105038: fd0007e3	(911)	FMOVD	F3,8(R31)
 0010503c: f9000bea	(911)	MOV	R10,16(R31)
 00105040: 97ffffda	(911)	BL	,modf+0x104fa8(BRANCH)
 00105044: f94023e9	(911)	MOV	ip+8(FP),R9
 00105048: fd0017e0	(911)	FMOVD	F0,x-8(SP)
 0010504c: fd400124	(912)	FMOVD	0(R9),F4
 00105050: fd400385	(912)	FMOVD	$0.0+0(SB),F5
 00105054: 1e6438a4	(912)	FSUBD	F4,F5,F4
 00105058: fd000124	(912)	FMOVD	F4,0(R9)
 0010505c: fd400380	(913)	FMOVD	$0.0+0(SB),F0
 00105060: fd4017e2	(913)	FMOVD	x-8(SP),F2
 00105064: 1e623800	(913)	FSUBD	F2,F0
 00105068: f84307fe	(913)	MOV	(R31)48!,R30
 0010506c: d65f03c0	(913)	RET	,0(R30)
 00105070: fd400381	(915)	FMOVD	$0.0+0(SB),F1
 00105074: fd000141	(915)	FMOVD	F1,0(R10)
 00105078: 1e6040e0	(916)	FMOVD	F7,F0
 0010507c: f84307fe	(916)	MOV	(R31)48!,R30
 00105080: d65f03c0	(916)	RET	,0(R30)
 00105084: 510ff8a9	(918)	SUBW	$1022,R5,R9
 00105088: 7100553f	(919)	CMPW	$21,R9,
 0010508c: 540001ac	(919)	BGT	,1050c0(BRANCH)
 00105090: 1ac92984	(920)	ASRW	R9,R12,R4
 00105094: 2a2403e4	(920)	MVNW	R4,R4
 00105098: b9402fe3	(920)	MOVWU	x-4(SP),R3
 0010509c: 0a040064	(920)	ANDW	R4,R3,R4
 001050a0: b9002fe4	(920)	MOVWU	R4,x-4(SP)
 001050a4: b9002bff	(921)	MOVWU	$0,x-8(SP)
 001050a8: fd4017e1	(925)	FMOVD	x-8(SP),F1
 001050ac: fd000141	(925)	FMOVD	F1,0(R10)
 001050b0: fd4017e1	(926)	FMOVD	x-8(SP),F1
 001050b4: 1e6138e0	(926)	FSUBD	F1,F7,F0
 001050b8: f84307fe	(926)	MOV	(R31)48!,R30
 001050bc: d65f03c0	(926)	RET	,0(R30)
 001050c0: 7100d53f	(923)	CMPW	$53,R9,
 001050c4: 54ffff2c	(923)	BGT	,1050a8(BRANCH)
 001050c8: 51005923	(924)	SUBW	$22,R9,R3
 001050cc: 1ac32963	(924)	ASRW	R3,R11,R3
 001050d0: 2a2303e3	(924)	MVNW	R3,R3
 001050d4: b9402be2	(924)	MOVWU	x-8(SP),R2
 001050d8: 0a030043	(924)	ANDW	R3,R2,R3
 001050dc: b9002be3	(924)	MOVWU	R3,x-8(SP)
 001050e0: 17fffff2	(925)	B	,1050a8(BRANCH)

 001050e4:		(812)	TEXT	fabs+0(SB),R0,$-8
 001050e4: fd4007e7	(812)	FMOVD	arg+0(FP),F7
 001050e8: fd400382	(815)	FMOVD	$0.0+0(SB),F2
 001050ec: 1e6220e0	(815)	FCMPD	F2,F7,
 001050f0: 54000085	(815)	BPL	,105100(BRANCH)
 001050f4: fd400380	(816)	FMOVD	$0.0+0(SB),F0
 001050f8: 1e673800	(816)	FSUBD	F7,F0
 001050fc: d65f03c0	(816)	RET	,0(R30)
 00105100: 1e6040e0	(817)	FMOVD	F7,F0
 00105104: d65f03c0	(817)	RET	,0(R30)

 00105108:		(812)	TEXT	snprint+0(SB),R0,$56
 00105108: f81c0ffe	(812)	MOV	R30,-64(R31)!
 0010510c: b98053eb	(812)	MOVW	len+8(FP),R11
 00105110: 910163e2	(817)	MOV	$fmt+16(FP),R2
 00105114: 91002042	(817)	ADD	$8,R2,R2
 00105118: b90013eb	(818)	MOVW	R11,16(R31)
 0010511c: f9402fe3	(818)	MOV	fmt+16(FP),R3
 00105120: f9000fe3	(818)	MOV	R3,24(R31)
 00105124: f9001be2	(818)	MOV	R2,args-16(SP)
 00105128: f90013e2	(818)	MOV	R2,32(R31)
 0010512c: 94000016	(818)	BL	,vsnprint+0x105184(BRANCH)
 00105130: f9401bea	(818)	MOV	args-16(SP),R10
 00105134: f84407fe	(820)	MOV	(R31)64!,R30
 00105138: d65f03c0	(820)	RET	,0(R30)

 0010513c:		(814)	TEXT	_fmtlock+0(SB),R0,$8
 0010513c: f81f0ffe	(814)	MOV	R30,-16(R31)!
 00105140: 9103c380	(816)	MOV	$fmtl<>+0(SB),R0
 00105144: 97ffed62	(816)	BL	,lock+0x1006cc(BRANCH)
 00105148: f84107fe	(816)	MOV	(R31)16!,R30
 0010514c: d65f03c0	(816)	RET	,0(R30)

 00105150:		(820)	TEXT	_fmtunlock+0(SB),R0,$8
 00105150: f81f0ffe	(820)	MOV	R30,-16(R31)!
 00105154: 9103c380	(822)	MOV	$fmtl<>+0(SB),R0
 00105158: 97ffed6d	(822)	BL	,unlock+0x10070c(BRANCH)
 0010515c: f84107fe	(822)	MOV	(R31)16!,R30
 00105160: d65f03c0	(822)	RET	,0(R30)

 00105164:		(1)	TEXT	errstr+0(SB),R1,$-8
 00105164: f90007e0	(3)	MOV	R0,a0+0(FP)
 00105168: d4000521	(4)	SVC	,$41
 0010516c: d65f03c0	(5)	RET	,0(R30)

 00105170:		(811)	TEXT	abort+0(SB),R0,$-8
 00105170: d2800001	(813)	MOV	$0,R1
 00105174: b9800021	(813)	MOVW	0(R1),R1
 00105178: 6b1f003f	(813)	CMPW	$0,R1,
 0010517c: 54ffffa1	(813)	BNE	,105170(BRANCH)
 00105180: d65f03c0	(813)	RET	,0(R30)

 00105184:		(812)	TEXT	vsnprint+0(SB),R0,$104
 00105184: f8190ffe	(812)	MOV	R30,-112(R31)!
 00105188: f9404bec	(812)	MOV	args+24(FP),R12
 0010518c: f94047eb	(812)	MOV	fmt+16(FP),R11
 00105190: b98083ea	(812)	MOVW	len+8(FP),R10
 00105194: 6b1f015f	(816)	CMPW	$0,R10,
 00105198: 5400008c	(816)	BGT	,1051a8(BRANCH)
 0010519c: 12800000	(817)	MOVW	$-1,R0
 001051a0: f84707fe	(817)	MOV	(R31)112!,R30
 001051a4: d65f03c0	(817)	RET	,0(R30)
 001051a8: 390083ff	(818)	MOVBU	$0,f-80(SP)
 001051ac: f90017e0	(819)	MOV	R0,f-72(SP)
 001051b0: f9001be0	(820)	MOV	R0,f-64(SP)
 001051b4: f9003fe0	(821)	MOV	R0,buf+0(FP)
 001051b8: 8b000143	(821)	ADD	R0,R10,R3
 001051bc: d1000463	(821)	SUB	$1,R3
 001051c0: f9001fe3	(821)	MOV	R3,f-56(SP)
 001051c4: f90023ff	(822)	MOV	$0,f-48(SP)
 001051c8: f90027ff	(823)	MOV	$0,f-40(SP)
 001051cc: b90053ff	(824)	MOVW	$0,f-32(SP)
 001051d0: f9002fec	(825)	MOV	R12,f-24(SP)
 001051d4: 910083e0	(826)	MOV	$f-80(SP),R0
 001051d8: f9000beb	(826)	MOV	R11,16(R31)
 001051dc: 97ffee37	(826)	BL	,dofmt+0x100ab8(BRANCH)
 001051e0: f9403fe9	(826)	MOV	buf+0(FP),R9
 001051e4: f9401be1	(827)	MOV	f-64(SP),R1
 001051e8: 3900003f	(827)	MOVB	$0,0(R1)
 001051ec: f9401be3	(828)	MOV	f-64(SP),R3
 001051f0: cb090060	(828)	SUB	R9,R3,R0
 001051f4: f84707fe	(828)	MOV	(R31)112!,R30
 001051f8: d65f03c0	(828)	RET	,0(R30)
 001051fc: 14000000	(0)	B	,0(APC)
 00105200: 00200000 00000000(0)	DWORD	,$setSB+0(SB)
 00105208: 00000010	(0)	WORD	,$16
 0010520c: 00000001	(0)	WORD	,$1
 00105210: 00000020	(0)	WORD	,$32
 00105214: 00000008	(0)	WORD	,$8
 00105218: 00000100	(0)	WORD	,$256
 00105220: 00100964 00000000(0)	DWORD	,$_fmtFdFlush+0(SB)
 00105228: 00000004	(0)	WORD	,$4
 0010522c: 00000078	(0)	WORD	,$120
 00105230: 00000002	(0)	WORD	,$2
 00105238: 00000030 00000000(0)	DWORD	,$48
 00105240: 00000003	(0)	WORD	,$3
 00105244: 00000006	(0)	WORD	,$6
 00105248: 0000d800	(0)	WORD	,$55296
 0010524c: 0000dfff	(0)	WORD	,$57343
 00105250: 0010ffff	(0)	WORD	,$1114111
 00105258: 00102148 00000000(0)	DWORD	,$_badfmt+0(SB)
 00105260: 00000005	(0)	WORD	,$5
 00105264: 0000001e	(0)	WORD	,$30
 00105268: 0000000e	(0)	WORD	,$14
 0010526c: 00000080	(0)	WORD	,$128
 00105270: 0fffffff	(0)	WORD	,$268435455
 00105274: 10000000	(0)	WORD	,$268435456
 00105278: 00000007	(0)	WORD	,$7
 0010527c: 00002710	(0)	WORD	,$10000
 00105280: 7ff00000	(0)	WORD	,$2146435072
 00105284: fff00000	(0)	WORD	,$4293918720
 00105288: 001fffff	(0)	WORD	,$2097151
 0010528c: 7fffffff	(0)	WORD	,$2147483647

